

Microchip MPLAB XC8 Assembler V2.10 build 88905656 
                                                                                               Fri Feb 28 14:14:21 2020

Microchip MPLAB XC8 C Compiler v2.10 (Free license) build 20190730164152 Og1 
     1                           	processor	16F887
     2                           	opt	pw 120
     3                           	opt	flic
     4                           	psect	strings,global,class=STRING,delta=2
     5                           	psect	cinit,global,class=CODE,merge=1,delta=2
     6                           	psect	bssBANK0,global,class=BANK0,space=1,delta=1
     7                           	psect	bssBANK1,global,class=BANK1,space=1,delta=1
     8                           	psect	clrtext,global,class=CODE,delta=2
     9                           	psect	cstackCOMMON,global,class=COMMON,space=1,delta=1
    10                           	psect	cstackBANK0,global,class=BANK0,space=1,delta=1
    11                           	psect	maintext,global,class=CODE,split=1,delta=2
    12                           	psect	text1,local,class=CODE,merge=1,delta=2
    13                           	psect	text2,local,class=CODE,merge=1,delta=2
    14                           	psect	text3,local,class=CODE,merge=1,delta=2
    15                           	psect	text4,local,class=CODE,merge=1,delta=2
    16                           	psect	text5,local,class=CODE,merge=1,delta=2
    17                           	psect	text6,local,class=CODE,merge=1,delta=2
    18                           	psect	text7,local,class=CODE,merge=1,delta=2
    19                           	psect	text8,local,class=CODE,merge=1,delta=2,group=2
    20                           	psect	text9,local,class=CODE,merge=1,delta=2,group=2
    21                           	psect	text10,local,class=CODE,merge=1,delta=2,group=1
    22                           	psect	text11,local,class=CODE,merge=1,delta=2,group=1
    23                           	psect	text12,local,class=CODE,merge=1,delta=2
    24                           	psect	text13,local,class=CODE,merge=1,delta=2,group=1
    25                           	psect	text14,local,class=CODE,merge=1,delta=2,group=1
    26                           	psect	text15,local,class=CODE,merge=1,delta=2,group=1
    27                           	psect	text16,local,class=CODE,merge=1,delta=2,group=1
    28                           	psect	text17,local,class=CODE,merge=1,delta=2,group=1
    29                           	psect	text18,local,class=CODE,merge=1,delta=2,group=1
    30                           	psect	text19,local,class=CODE,merge=1,delta=2,group=1
    31                           	psect	text20,local,class=CODE,merge=1,delta=2
    32                           	psect	text21,local,class=CODE,merge=1,delta=2
    33                           	psect	text22,local,class=CODE,merge=1,delta=2
    34                           	psect	text23,local,class=CODE,merge=1,delta=2
    35                           	psect	text24,local,class=CODE,merge=1,delta=2
    36                           	psect	text25,local,class=CODE,merge=1,delta=2
    37                           	psect	text26,local,class=CODE,merge=1,delta=2,group=1
    38                           	dabs	1,0x7E,2
    39  0000                     
    40                           ; Version 2.10
    41                           ; Generated 31/07/2019 GMT
    42                           ; 
    43                           ; Copyright © 2019, Microchip Technology Inc. and its subsidiaries ("Microchip")
    44                           ; All rights reserved.
    45                           ; 
    46                           ; This software is developed by Microchip Technology Inc. and its subsidiaries ("Microch
      +                          ip").
    47                           ; 
    48                           ; Redistribution and use in source and binary forms, with or without modification, are
    49                           ; permitted provided that the following conditions are met:
    50                           ; 
    51                           ;     1. Redistributions of source code must retain the above copyright notice, this lis
      +                          t of
    52                           ;        conditions and the following disclaimer.
    53                           ; 
    54                           ;     2. Redistributions in binary form must reproduce the above copyright notice, this 
      +                          list
    55                           ;        of conditions and the following disclaimer in the documentation and/or other
    56                           ;        materials provided with the distribution.
    57                           ; 
    58                           ;     3. Microchip's name may not be used to endorse or promote products derived from th
      +                          is
    59                           ;        software without specific prior written permission.
    60                           ; 
    61                           ; THIS SOFTWARE IS PROVIDED BY MICROCHIP "AS IS" AND ANY EXPRESS OR IMPLIED WARRANTIES,
    62                           ; INCLUDING, BUT NOT LIMITED TO, THE IMPLIED WARRANTIES OF MERCHANTABILITY AND FITNESS F
      +                          OR
    63                           ; PURPOSE ARE DISCLAIMED.  IN NO EVENT SHALL MICROCHIP BE LIABLE FOR ANY DIRECT, INDIREC
      +                          T,
    64                           ; INCIDENTAL, SPECIAL, EXEMPLARY, OR CONSEQUENTIAL DAMAGES (INCLUDING BUT NOT LIMITED TO
    65                           ; PROCUREMENT OF SUBSTITUTE GOODS OR SERVICES; LOSS OF USE, DATA OR PROFITS; OR BUSINESS
    66                           ; INTERRUPTION) HOWSOEVER CAUSED AND ON ANY THEORY OF LIABILITY, WHETHER IN CONTRACT, ST
      +                          RICT
    67                           ; LIABILITY, OR TORT (INCLUDING NEGLIGENCE OR OTHERWISE) ARISING IN ANY WAY OUT OF THE U
      +                          SE OF
    68                           ; THIS SOFTWARE, EVEN IF ADVISED OF THE POSSIBILITY OF SUCH DAMAGE.
    69                           ; 
    70                           ; 
    71                           ; Code-generator required, PIC16F887 Definitions
    72                           ; 
    73                           ; SFR Addresses
    74  0000                     	;# 
    75  0001                     	;# 
    76  0002                     	;# 
    77  0003                     	;# 
    78  0004                     	;# 
    79  0005                     	;# 
    80  0006                     	;# 
    81  0007                     	;# 
    82  0008                     	;# 
    83  0009                     	;# 
    84  000A                     	;# 
    85  000B                     	;# 
    86  000C                     	;# 
    87  000D                     	;# 
    88  000E                     	;# 
    89  000E                     	;# 
    90  000F                     	;# 
    91  0010                     	;# 
    92  0011                     	;# 
    93  0012                     	;# 
    94  0013                     	;# 
    95  0014                     	;# 
    96  0015                     	;# 
    97  0015                     	;# 
    98  0016                     	;# 
    99  0017                     	;# 
   100  0018                     	;# 
   101  0019                     	;# 
   102  001A                     	;# 
   103  001B                     	;# 
   104  001B                     	;# 
   105  001C                     	;# 
   106  001D                     	;# 
   107  001E                     	;# 
   108  001F                     	;# 
   109  0081                     	;# 
   110  0085                     	;# 
   111  0086                     	;# 
   112  0087                     	;# 
   113  0088                     	;# 
   114  0089                     	;# 
   115  008C                     	;# 
   116  008D                     	;# 
   117  008E                     	;# 
   118  008F                     	;# 
   119  0090                     	;# 
   120  0091                     	;# 
   121  0092                     	;# 
   122  0093                     	;# 
   123  0093                     	;# 
   124  0093                     	;# 
   125  0094                     	;# 
   126  0095                     	;# 
   127  0096                     	;# 
   128  0097                     	;# 
   129  0098                     	;# 
   130  0099                     	;# 
   131  009A                     	;# 
   132  009B                     	;# 
   133  009C                     	;# 
   134  009D                     	;# 
   135  009E                     	;# 
   136  009F                     	;# 
   137  0105                     	;# 
   138  0107                     	;# 
   139  0108                     	;# 
   140  0109                     	;# 
   141  010C                     	;# 
   142  010C                     	;# 
   143  010D                     	;# 
   144  010E                     	;# 
   145  010F                     	;# 
   146  0185                     	;# 
   147  0187                     	;# 
   148  0188                     	;# 
   149  0189                     	;# 
   150  018C                     	;# 
   151  018D                     	;# 
   152  0000                     	;# 
   153  0001                     	;# 
   154  0002                     	;# 
   155  0003                     	;# 
   156  0004                     	;# 
   157  0005                     	;# 
   158  0006                     	;# 
   159  0007                     	;# 
   160  0008                     	;# 
   161  0009                     	;# 
   162  000A                     	;# 
   163  000B                     	;# 
   164  000C                     	;# 
   165  000D                     	;# 
   166  000E                     	;# 
   167  000E                     	;# 
   168  000F                     	;# 
   169  0010                     	;# 
   170  0011                     	;# 
   171  0012                     	;# 
   172  0013                     	;# 
   173  0014                     	;# 
   174  0015                     	;# 
   175  0015                     	;# 
   176  0016                     	;# 
   177  0017                     	;# 
   178  0018                     	;# 
   179  0019                     	;# 
   180  001A                     	;# 
   181  001B                     	;# 
   182  001B                     	;# 
   183  001C                     	;# 
   184  001D                     	;# 
   185  001E                     	;# 
   186  001F                     	;# 
   187  0081                     	;# 
   188  0085                     	;# 
   189  0086                     	;# 
   190  0087                     	;# 
   191  0088                     	;# 
   192  0089                     	;# 
   193  008C                     	;# 
   194  008D                     	;# 
   195  008E                     	;# 
   196  008F                     	;# 
   197  0090                     	;# 
   198  0091                     	;# 
   199  0092                     	;# 
   200  0093                     	;# 
   201  0093                     	;# 
   202  0093                     	;# 
   203  0094                     	;# 
   204  0095                     	;# 
   205  0096                     	;# 
   206  0097                     	;# 
   207  0098                     	;# 
   208  0099                     	;# 
   209  009A                     	;# 
   210  009B                     	;# 
   211  009C                     	;# 
   212  009D                     	;# 
   213  009E                     	;# 
   214  009F                     	;# 
   215  0105                     	;# 
   216  0107                     	;# 
   217  0108                     	;# 
   218  0109                     	;# 
   219  010C                     	;# 
   220  010C                     	;# 
   221  010D                     	;# 
   222  010E                     	;# 
   223  010F                     	;# 
   224  0185                     	;# 
   225  0187                     	;# 
   226  0188                     	;# 
   227  0189                     	;# 
   228  018C                     	;# 
   229  018D                     	;# 
   230  0000                     	;# 
   231  0001                     	;# 
   232  0002                     	;# 
   233  0003                     	;# 
   234  0004                     	;# 
   235  0005                     	;# 
   236  0006                     	;# 
   237  0007                     	;# 
   238  0008                     	;# 
   239  0009                     	;# 
   240  000A                     	;# 
   241  000B                     	;# 
   242  000C                     	;# 
   243  000D                     	;# 
   244  000E                     	;# 
   245  000E                     	;# 
   246  000F                     	;# 
   247  0010                     	;# 
   248  0011                     	;# 
   249  0012                     	;# 
   250  0013                     	;# 
   251  0014                     	;# 
   252  0015                     	;# 
   253  0015                     	;# 
   254  0016                     	;# 
   255  0017                     	;# 
   256  0018                     	;# 
   257  0019                     	;# 
   258  001A                     	;# 
   259  001B                     	;# 
   260  001B                     	;# 
   261  001C                     	;# 
   262  001D                     	;# 
   263  001E                     	;# 
   264  001F                     	;# 
   265  0081                     	;# 
   266  0085                     	;# 
   267  0086                     	;# 
   268  0087                     	;# 
   269  0088                     	;# 
   270  0089                     	;# 
   271  008C                     	;# 
   272  008D                     	;# 
   273  008E                     	;# 
   274  008F                     	;# 
   275  0090                     	;# 
   276  0091                     	;# 
   277  0092                     	;# 
   278  0093                     	;# 
   279  0093                     	;# 
   280  0093                     	;# 
   281  0094                     	;# 
   282  0095                     	;# 
   283  0096                     	;# 
   284  0097                     	;# 
   285  0098                     	;# 
   286  0099                     	;# 
   287  009A                     	;# 
   288  009B                     	;# 
   289  009C                     	;# 
   290  009D                     	;# 
   291  009E                     	;# 
   292  009F                     	;# 
   293  0105                     	;# 
   294  0107                     	;# 
   295  0108                     	;# 
   296  0109                     	;# 
   297  010C                     	;# 
   298  010C                     	;# 
   299  010D                     	;# 
   300  010E                     	;# 
   301  010F                     	;# 
   302  0185                     	;# 
   303  0187                     	;# 
   304  0188                     	;# 
   305  0189                     	;# 
   306  018C                     	;# 
   307  018D                     	;# 
   308  0013                     _SSPBUF	set	19
   309  0014                     _SSPCON	set	20
   310  0009                     _PORTE	set	9
   311  0007                     _PORTC	set	7
   312  0006                     _PORTB	set	6
   313  0008                     _PORTD	set	8
   314  0007                     _PORTCbits	set	7
   315  0005                     _PORTA	set	5
   316  0091                     _SSPCON2bits	set	145
   317  0087                     _TRISCbits	set	135
   318  0094                     _SSPSTAT	set	148
   319  0093                     _SSPADD	set	147
   320  0091                     _SSPCON2	set	145
   321  0089                     _TRISE	set	137
   322  0088                     _TRISD	set	136
   323  0087                     _TRISC	set	135
   324  0086                     _TRISB	set	134
   325  0085                     _TRISA	set	133
   326  048C                     _ACKEN	set	1164
   327  048D                     _ACKDT	set	1165
   328  0189                     _ANSELH	set	393
   329  0188                     _ANSEL	set	392
   330                           
   331                           	psect	strings
   332  0800                     __pstrings:	
   333  0800                     stringtab:	
   334  0800                     __stringtab:	
   335                           
   336                           ;	String table - string pointers are 1 byte each
   337  0800  1BFF               	btfsc	btemp+1,7
   338  0801  280A               	ljmp	stringcode
   339  0802  1383               	bcf	3,7
   340  0803  187F               	btfsc	btemp+1,0
   341  0804  1783               	bsf	3,7
   342  0805  0800               	movf	0,w
   343  0806  0A84               	incf	4,f
   344  0807  1903               	skipnz
   345  0808  0AFF               	incf	btemp+1,f
   346  0809  0008               	return
   347  080A                     stringcode:	
   348  080A                     stringdir:	
   349  080A  3008               	movlw	high stringdir
   350  080B  008A               	movwf	10
   351  080C  0804               	movf	4,w
   352  080D  0A84               	incf	4,f
   353  080E  0782               	addwf	2,f
   354  080F                     __stringbase:	
   355  080F  3400               	retlw	0
   356  0810                     __end_of__stringtab:	
   357  0810                     STR_1:	
   358  0810  3420               	retlw	32	;' '
   359  0811  3441               	retlw	65	;'A'
   360  0812  3444               	retlw	68	;'D'
   361  0813  3443               	retlw	67	;'C'
   362  0814  3476               	retlw	118	;'v'
   363  0815  3420               	retlw	32	;' '
   364  0816  3443               	retlw	67	;'C'
   365  0817  344F               	retlw	79	;'O'
   366  0818  344E               	retlw	78	;'N'
   367  0819  3454               	retlw	84	;'T'
   368  081A  3420               	retlw	32	;' '
   369  081B  3444               	retlw	68	;'D'
   370  081C  3449               	retlw	73	;'I'
   371  081D  3453               	retlw	83	;'S'
   372  081E  3454               	retlw	84	;'T'
   373  081F  3420               	retlw	32	;' '
   374  0820  3400               	retlw	0
   375  0821                     STR_3:	
   376  0821  346D               	retlw	109	;'m'
   377  0822  346D               	retlw	109	;'m'
   378  0823  3400               	retlw	0
   379  0824                     STR_2:	
   380  0824  342E               	retlw	46	;'.'
   381  0825  3400               	retlw	0
   382                           
   383                           ; #config settings
   384  0000                     
   385                           	psect	cinit
   386  07EA                     start_initialization:	
   387  07EA                     __initialization:	
   388                           
   389                           ; Clear objects allocated to BANK0
   390  07EA  1283               	bcf	3,5	;RP0=0, select bank0
   391  07EB  1303               	bcf	3,6	;RP1=0, select bank0
   392  07EC  01E8               	clrf	__pbssBANK0& (0+127)
   393  07ED  01E9               	clrf	(__pbssBANK0+1)& (0+127)
   394  07EE  01EA               	clrf	(__pbssBANK0+2)& (0+127)
   395  07EF  01EB               	clrf	(__pbssBANK0+3)& (0+127)
   396  07F0  01EC               	clrf	(__pbssBANK0+4)& (0+127)
   397  07F1  01ED               	clrf	(__pbssBANK0+5)& (0+127)
   398  07F2  01EE               	clrf	(__pbssBANK0+6)& (0+127)
   399                           
   400                           ; Clear objects allocated to BANK1
   401  07F3  1383               	bcf	3,7	;select IRP bank0
   402  07F4  30A0               	movlw	low __pbssBANK1
   403  07F5  0084               	movwf	4
   404  07F6  30DC               	movlw	low (__pbssBANK1+60)
   405  07F7  160A  118A  27A6  120A  118A  	fcall	clear_ram0
   406  07FC                     end_of_initialization:	
   407                           ;End of C runtime variable initialization code
   408                           
   409  07FC                     __end_of__initialization:	
   410  07FC  0183               	clrf	3
   411  07FD  120A  118A  29BF   	ljmp	_main	;jump to C main() function
   412                           
   413                           	psect	bssBANK0
   414  0068                     __pbssBANK0:	
   415  0068                     _valanapot2:	
   416  0068                     	ds	2
   417  006A                     _valanapot1:	
   418  006A                     	ds	2
   419  006C                     _contador:	
   420  006C                     	ds	1
   421  006D                     _desecho:	
   422  006D                     	ds	1
   423  006E                     _valana:	
   424  006E                     	ds	1
   425                           
   426                           	psect	bssBANK1
   427  00A0                     __pbssBANK1:	
   428  00A0                     _valor:	
   429  00A0                     	ds	4
   430  00A4                     _voltaje:	
   431  00A4                     	ds	4
   432  00A8                     _valanapot3:	
   433  00A8                     	ds	2
   434  00AA                     _distancia:	
   435  00AA                     	ds	2
   436  00AC                     _distancia1:	
   437  00AC                     	ds	16
   438  00BC                     _contador1:	
   439  00BC                     	ds	8
   440  00C4                     _valana3:	
   441  00C4                     	ds	8
   442  00CC                     _valana2:	
   443  00CC                     	ds	8
   444  00D4                     _valana1:	
   445  00D4                     	ds	8
   446                           
   447                           	psect	clrtext
   448  17A6                     clear_ram0:	
   449                           ;	Called with FSR containing the base address, and
   450                           ;	W with the last address+1
   451                           
   452  17A6  0064               	clrwdt	;clear the watchdog before getting into this loop
   453  17A7                     clrloop0:	
   454  17A7  0180               	clrf	0	;clear RAM location pointed to by FSR
   455  17A8  0A84               	incf	4,f	;increment pointer
   456  17A9  0604               	xorwf	4,w	;XOR with final address
   457  17AA  1903               	btfsc	3,2	;have we reached the end yet?
   458  17AB  3400               	retlw	0	;all done for this memory range, return
   459  17AC  0604               	xorwf	4,w	;XOR again to restore value
   460  17AD  2FA7               	goto	clrloop0	;do the next byte
   461                           
   462                           	psect	cstackCOMMON
   463  0070                     __pcstackCOMMON:	
   464  0070                     ?_setup:	
   465  0070                     ??_setup:	
   466                           ; 1 bytes @ 0x0
   467                           
   468  0070                     ?_lcd_ini:	
   469                           ; 1 bytes @ 0x0
   470                           
   471  0070                     ?_lcd_com:	
   472                           ; 1 bytes @ 0x0
   473                           
   474  0070                     ?_I2C_Master_Start:	
   475                           ; 1 bytes @ 0x0
   476                           
   477  0070                     ??_I2C_Master_Start:	
   478                           ; 1 bytes @ 0x0
   479                           
   480  0070                     ?_I2C_Master_Write:	
   481                           ; 1 bytes @ 0x0
   482                           
   483  0070                     ?_I2C_Master_Stop:	
   484                           ; 1 bytes @ 0x0
   485                           
   486  0070                     ??_I2C_Master_Stop:	
   487                           ; 1 bytes @ 0x0
   488                           
   489  0070                     ?_main:	
   490                           ; 1 bytes @ 0x0
   491                           
   492  0070                     ?_enable:	
   493                           ; 1 bytes @ 0x0
   494                           
   495  0070                     ??_enable:	
   496                           ; 1 bytes @ 0x0
   497                           
   498  0070                     ?_lcd_ready:	
   499                           ; 1 bytes @ 0x0
   500                           
   501  0070                     ??_lcd_ready:	
   502                           ; 1 bytes @ 0x0
   503                           
   504  0070                     ?_lcd_dwr:	
   505                           ; 1 bytes @ 0x0
   506                           
   507  0070                     ?_I2C_Master_Wait:	
   508                           ; 1 bytes @ 0x0
   509                           
   510  0070                     ??_I2C_Master_Wait:	
   511                           ; 1 bytes @ 0x0
   512                           
   513  0070                     ?_I2C_Master_Read:	
   514                           ; 1 bytes @ 0x0
   515                           
   516  0070                     ?__Umul8_16:	
   517                           ; 2 bytes @ 0x0
   518                           
   519  0070                     ?___lwdiv:	
   520                           ; 2 bytes @ 0x0
   521                           
   522  0070                     ?___lwmod:	
   523                           ; 2 bytes @ 0x0
   524                           
   525  0070                     ?___lldiv:	
   526                           ; 2 bytes @ 0x0
   527                           
   528  0070                     ?___fladd:	
   529                           ; 4 bytes @ 0x0
   530                           
   531  0070                     ?___xxtofl:	
   532                           ; 4 bytes @ 0x0
   533                           
   534  0070                     __Umul8_16@multiplicand:	
   535                           ; 4 bytes @ 0x0
   536                           
   537  0070                     I2C_Master_Write@d:	
   538                           ; 1 bytes @ 0x0
   539                           
   540  0070                     I2C_Master_Read@a:	
   541                           ; 2 bytes @ 0x0
   542                           
   543  0070                     ___lwdiv@divisor:	
   544                           ; 2 bytes @ 0x0
   545                           
   546  0070                     ___lwmod@divisor:	
   547                           ; 2 bytes @ 0x0
   548                           
   549  0070                     ___lldiv@divisor:	
   550                           ; 2 bytes @ 0x0
   551                           
   552  0070                     ___fladd@b:	
   553                           ; 4 bytes @ 0x0
   554                           
   555  0070                     ___xxtofl@val:	
   556                           ; 4 bytes @ 0x0
   557                           
   558                           
   559                           ; 4 bytes @ 0x0
   560  0070                     	ds	2
   561  0072                     ??_lcd_com:	
   562  0072                     ??_I2C_Master_Write:	
   563                           ; 1 bytes @ 0x2
   564                           
   565  0072                     ??_I2C_Master_Read:	
   566                           ; 1 bytes @ 0x2
   567                           
   568  0072                     ??__Umul8_16:	
   569                           ; 1 bytes @ 0x2
   570                           
   571  0072                     ??_lcd_dwr:	
   572                           ; 1 bytes @ 0x2
   573                           
   574  0072                     lcd_dwr@x:	
   575                           ; 1 bytes @ 0x2
   576                           
   577  0072                     ___lwdiv@dividend:	
   578                           ; 1 bytes @ 0x2
   579                           
   580  0072                     ___lwmod@dividend:	
   581                           ; 2 bytes @ 0x2
   582                           
   583                           
   584                           ; 2 bytes @ 0x2
   585  0072                     	ds	1
   586  0073                     ?_lcd_msg:	
   587  0073                     lcd_msg@c:	
   588                           ; 1 bytes @ 0x3
   589                           
   590                           
   591                           ; 2 bytes @ 0x3
   592  0073                     	ds	1
   593  0074                     ??___lwdiv:	
   594  0074                     ??___lwmod:	
   595                           ; 1 bytes @ 0x4
   596                           
   597  0074                     ??___xxtofl:	
   598                           ; 1 bytes @ 0x4
   599                           
   600  0074                     lcd_com@dato:	
   601                           ; 1 bytes @ 0x4
   602                           
   603  0074                     I2C_Master_Read@temp:	
   604                           ; 1 bytes @ 0x4
   605                           
   606  0074                     __Umul8_16@product:	
   607                           ; 2 bytes @ 0x4
   608                           
   609  0074                     ___lldiv@dividend:	
   610                           ; 2 bytes @ 0x4
   611                           
   612  0074                     ___fladd@a:	
   613                           ; 4 bytes @ 0x4
   614                           
   615                           
   616                           ; 4 bytes @ 0x4
   617  0074                     	ds	1
   618  0075                     ??_lcd_ini:	
   619  0075                     ??_lcd_msg:	
   620                           ; 1 bytes @ 0x5
   621                           
   622  0075                     ___lwmod@counter:	
   623                           ; 1 bytes @ 0x5
   624                           
   625  0075                     ___lwdiv@quotient:	
   626                           ; 1 bytes @ 0x5
   627                           
   628                           
   629                           ; 2 bytes @ 0x5
   630  0075                     	ds	1
   631  0076                     __Umul8_16@word_mpld:	
   632                           
   633                           ; 2 bytes @ 0x6
   634  0076                     	ds	1
   635  0077                     ___lwdiv@counter:	
   636                           
   637                           ; 1 bytes @ 0x7
   638  0077                     	ds	1
   639  0078                     ?_utoa:	
   640  0078                     ??___lldiv:	
   641                           ; 1 bytes @ 0x8
   642                           
   643  0078                     ___fladd@signs:	
   644                           ; 1 bytes @ 0x8
   645                           
   646  0078                     ___xxtofl@sign:	
   647                           ; 1 bytes @ 0x8
   648                           
   649  0078                     __Umul8_16@multiplier:	
   650                           ; 1 bytes @ 0x8
   651                           
   652  0078                     utoa@val:	
   653                           ; 1 bytes @ 0x8
   654                           
   655                           
   656                           ; 2 bytes @ 0x8
   657  0078                     	ds	1
   658  0079                     ___fladd@aexp:	
   659  0079                     ___xxtofl@exp:	
   660                           ; 1 bytes @ 0x9
   661                           
   662  0079                     ___lldiv@quotient:	
   663                           ; 1 bytes @ 0x9
   664                           
   665                           
   666                           ; 4 bytes @ 0x9
   667  0079                     	ds	1
   668  007A                     ___fladd@bexp:	
   669  007A                     utoa@base:	
   670                           ; 1 bytes @ 0xA
   671                           
   672  007A                     ___xxtofl@arg:	
   673                           ; 2 bytes @ 0xA
   674                           
   675                           
   676                           ; 4 bytes @ 0xA
   677  007A                     	ds	1
   678  007B                     ___fladd@grs:	
   679                           
   680                           ; 1 bytes @ 0xB
   681  007B                     	ds	1
   682  007C                     ??_utoa:	
   683                           
   684                           ; 1 bytes @ 0xC
   685  007C                     	ds	1
   686  007D                     ??_itoa:	
   687  007D                     ___lldiv@counter:	
   688                           ; 1 bytes @ 0xD
   689                           
   690                           
   691                           ; 1 bytes @ 0xD
   692  007D                     	ds	1
   693  007E                     ??_float2int:	
   694  007E                     ??___flsub:	
   695                           ; 1 bytes @ 0xE
   696                           
   697                           
   698                           	psect	cstackBANK0
   699  0020                     __pcstackBANK0:	
   700                           ; 1 bytes @ 0xE
   701                           
   702  0020                     ?_I2C_Master_Init:	
   703  0020                     ??___fladd:	
   704                           ; 1 bytes @ 0x0
   705                           
   706  0020                     utoa@v:	
   707                           ; 1 bytes @ 0x0
   708                           
   709  0020                     I2C_Master_Init@c:	
   710                           ; 2 bytes @ 0x0
   711                           
   712                           
   713                           ; 4 bytes @ 0x0
   714  0020                     	ds	2
   715  0022                     utoa@c:	
   716                           
   717                           ; 1 bytes @ 0x2
   718  0022                     	ds	1
   719  0023                     utoa@buf:	
   720                           
   721                           ; 1 bytes @ 0x3
   722  0023                     	ds	1
   723  0024                     ??_I2C_Master_Init:	
   724  0024                     ?_itoa:	
   725                           ; 1 bytes @ 0x4
   726                           
   727  0024                     itoa@val:	
   728                           ; 1 bytes @ 0x4
   729                           
   730                           
   731                           ; 2 bytes @ 0x4
   732  0024                     	ds	2
   733  0026                     itoa@base:	
   734                           
   735                           ; 2 bytes @ 0x6
   736  0026                     	ds	2
   737  0028                     ?___flsub:	
   738  0028                     ___flsub@a:	
   739                           ; 4 bytes @ 0x8
   740                           
   741                           
   742                           ; 4 bytes @ 0x8
   743  0028                     	ds	1
   744  0029                     itoa@buf:	
   745                           
   746                           ; 1 bytes @ 0x9
   747  0029                     	ds	3
   748  002C                     ___flsub@b:	
   749                           
   750                           ; 4 bytes @ 0xC
   751  002C                     	ds	4
   752  0030                     ?___flmul:	
   753  0030                     ___flmul@b:	
   754                           ; 4 bytes @ 0x10
   755                           
   756                           
   757                           ; 4 bytes @ 0x10
   758  0030                     	ds	4
   759  0034                     ___flmul@a:	
   760                           
   761                           ; 4 bytes @ 0x14
   762  0034                     	ds	4
   763  0038                     ??___flmul:	
   764                           
   765                           ; 1 bytes @ 0x18
   766  0038                     	ds	5
   767  003D                     ___flmul@sign:	
   768                           
   769                           ; 1 bytes @ 0x1D
   770  003D                     	ds	1
   771  003E                     ___flmul@grs:	
   772                           
   773                           ; 4 bytes @ 0x1E
   774  003E                     	ds	4
   775  0042                     ___flmul@aexp:	
   776                           
   777                           ; 1 bytes @ 0x22
   778  0042                     	ds	1
   779  0043                     ___flmul@bexp:	
   780                           
   781                           ; 1 bytes @ 0x23
   782  0043                     	ds	1
   783  0044                     ___flmul@prod:	
   784                           
   785                           ; 4 bytes @ 0x24
   786  0044                     	ds	4
   787  0048                     ___flmul@temp:	
   788                           
   789                           ; 2 bytes @ 0x28
   790  0048                     	ds	2
   791  004A                     ?___fltol:	
   792  004A                     ?___fldiv:	
   793                           ; 4 bytes @ 0x2A
   794                           
   795  004A                     ___fltol@f1:	
   796                           ; 4 bytes @ 0x2A
   797                           
   798  004A                     ___fldiv@a:	
   799                           ; 4 bytes @ 0x2A
   800                           
   801                           
   802                           ; 4 bytes @ 0x2A
   803  004A                     	ds	4
   804  004E                     ??___fltol:	
   805  004E                     ___fldiv@b:	
   806                           ; 1 bytes @ 0x2E
   807                           
   808                           
   809                           ; 4 bytes @ 0x2E
   810  004E                     	ds	4
   811  0052                     ??___fldiv:	
   812                           
   813                           ; 1 bytes @ 0x32
   814  0052                     	ds	1
   815  0053                     ___fltol@sign1:	
   816                           
   817                           ; 1 bytes @ 0x33
   818  0053                     	ds	1
   819  0054                     ___fltol@exp1:	
   820                           
   821                           ; 1 bytes @ 0x34
   822  0054                     	ds	1
   823  0055                     ?_float2int:	
   824  0055                     float2int@valor:	
   825                           ; 1 bytes @ 0x35
   826                           
   827                           
   828                           ; 4 bytes @ 0x35
   829  0055                     	ds	2
   830  0057                     ___fldiv@rem:	
   831                           
   832                           ; 4 bytes @ 0x37
   833  0057                     	ds	2
   834  0059                     _float2int$883:	
   835                           
   836                           ; 4 bytes @ 0x39
   837  0059                     	ds	2
   838  005B                     ___fldiv@sign:	
   839                           
   840                           ; 1 bytes @ 0x3B
   841  005B                     	ds	1
   842  005C                     ___fldiv@new_exp:	
   843                           
   844                           ; 2 bytes @ 0x3C
   845  005C                     	ds	2
   846  005E                     ___fldiv@grs:	
   847                           
   848                           ; 4 bytes @ 0x3E
   849  005E                     	ds	4
   850  0062                     ___fldiv@bexp:	
   851                           
   852                           ; 1 bytes @ 0x42
   853  0062                     	ds	1
   854  0063                     ___fldiv@aexp:	
   855                           
   856                           ; 1 bytes @ 0x43
   857  0063                     	ds	1
   858  0064                     ??_main:	
   859                           
   860                           ; 1 bytes @ 0x44
   861  0064                     	ds	4
   862                           
   863                           	psect	maintext
   864  01BF                     __pmaintext:	
   865 ;;
   866 ;;Main: autosize = 0, tempsize = 4, incstack = 0, save=0
   867 ;;
   868 ;; *************** function _main *****************
   869 ;; Defined at:
   870 ;;		line 34 in file "Laboratorio_5_Master.c"
   871 ;; Parameters:    Size  Location     Type
   872 ;;		None
   873 ;; Auto vars:     Size  Location     Type
   874 ;;		None
   875 ;; Return value:  Size  Location     Type
   876 ;;                  1    wreg      void 
   877 ;; Registers used:
   878 ;;		wreg, fsr0l, fsr0h, status,2, status,0, btemp+1, pclath, cstack
   879 ;; Tracked objects:
   880 ;;		On entry : B00/0
   881 ;;		On exit  : 0/0
   882 ;;		Unchanged: 0/0
   883 ;; Data sizes:     COMMON   BANK0   BANK1   BANK3   BANK2
   884 ;;      Params:         0       0       0       0       0
   885 ;;      Locals:         0       0       0       0       0
   886 ;;      Temps:          0       4       0       0       0
   887 ;;      Totals:         0       4       0       0       0
   888 ;;Total ram usage:        4 bytes
   889 ;; Hardware stack levels required when called:    3
   890 ;; This function calls:
   891 ;;		_I2C_Master_Init
   892 ;;		_I2C_Master_Read
   893 ;;		_I2C_Master_Start
   894 ;;		_I2C_Master_Stop
   895 ;;		_I2C_Master_Write
   896 ;;		___fldiv
   897 ;;		___flmul
   898 ;;		___xxtofl
   899 ;;		_float2int
   900 ;;		_itoa
   901 ;;		_lcd_com
   902 ;;		_lcd_ini
   903 ;;		_lcd_msg
   904 ;;		_setup
   905 ;; This function is called by:
   906 ;;		Startup code after reset
   907 ;; This function uses a non-reentrant model
   908 ;;
   909                           
   910                           
   911                           ;psect for function _main
   912  01BF                     _main:	
   913  01BF                     l2618:	
   914                           ;incstack = 0
   915                           ; Regs used in _main: [wreg-fsr0h+status,2+status,0+btemp+1+pclath+cstack]
   916                           
   917                           
   918                           ;Laboratorio_5_Master.c: 35:     setup();
   919  01BF  160A  118A  27EC  120A  118A  	fcall	_setup
   920                           
   921                           ;Laboratorio_5_Master.c: 36:     lcd_ini();
   922  01C4  120A  158A  20CB  120A  118A  	fcall	_lcd_ini
   923                           
   924                           ;Laboratorio_5_Master.c: 37:     lcd_com(1);
   925  01C9  3001               	movlw	1
   926  01CA  120A  158A  2148  120A  118A  	fcall	_lcd_com
   927  01CF                     l2620:	
   928                           
   929                           ;Laboratorio_5_Master.c: 38:     lcd_msg (" ADCv CONT DIST ");
   930  01CF  3001               	movlw	(low ((STR_1-__stringbase)| (0+32768)))& (0+255)
   931  01D0  00F3               	movwf	lcd_msg@c
   932  01D1  3080               	movlw	128
   933  01D2  00F4               	movwf	lcd_msg@c+1
   934  01D3  120A  158A  207E  120A  118A  	fcall	_lcd_msg
   935  01D8                     l2622:	
   936                           
   937                           ;Laboratorio_5_Master.c: 39:     _delay((unsigned long)((20)*(4000000/4000.0)));
   938  01D8  301A               	movlw	26
   939  01D9  1283               	bcf	3,5	;RP0=0, select bank0
   940  01DA  1303               	bcf	3,6	;RP1=0, select bank0
   941  01DB  00E5               	movwf	??_main+1
   942  01DC  30F7               	movlw	247
   943  01DD  00E4               	movwf	??_main
   944  01DE                     u3437:	
   945  01DE  0BE4               	decfsz	??_main,f
   946  01DF  29DE               	goto	u3437
   947  01E0  0BE5               	decfsz	??_main+1,f
   948  01E1  29DE               	goto	u3437
   949  01E2  29E3               	nop2
   950  01E3                     l2624:	
   951                           
   952                           ;Laboratorio_5_Master.c: 43:         I2C_Master_Init(100000);
   953  01E3  3000               	movlw	0
   954  01E4  1283               	bcf	3,5	;RP0=0, select bank0
   955  01E5  1303               	bcf	3,6	;RP1=0, select bank0
   956  01E6  00A3               	movwf	I2C_Master_Init@c+3
   957  01E7  3001               	movlw	1
   958  01E8  00A2               	movwf	I2C_Master_Init@c+2
   959  01E9  3086               	movlw	134
   960  01EA  00A1               	movwf	I2C_Master_Init@c+1
   961  01EB  30A0               	movlw	160
   962  01EC  00A0               	movwf	I2C_Master_Init@c
   963  01ED  120A  118A  2004  120A  118A  	fcall	_I2C_Master_Init
   964  01F2                     l2626:	
   965                           
   966                           ;Laboratorio_5_Master.c: 45:         I2C_Master_Start();
   967  01F2  160A  118A  27AE  120A  118A  	fcall	_I2C_Master_Start
   968  01F7                     l2628:	
   969                           
   970                           ;Laboratorio_5_Master.c: 46:         I2C_Master_Write(0x30);
   971  01F7  3030               	movlw	48
   972  01F8  00F0               	movwf	I2C_Master_Write@d
   973  01F9  3000               	movlw	0
   974  01FA  00F1               	movwf	I2C_Master_Write@d+1
   975  01FB  160A  118A  27C0  120A  118A  	fcall	_I2C_Master_Write
   976  0200                     l2630:	
   977                           
   978                           ;Laboratorio_5_Master.c: 47:         I2C_Master_Write(desecho);
   979  0200  1283               	bcf	3,5	;RP0=0, select bank0
   980  0201  1303               	bcf	3,6	;RP1=0, select bank0
   981  0202  086D               	movf	_desecho,w
   982  0203  00E4               	movwf	??_main
   983  0204  01E5               	clrf	??_main+1
   984  0205  0864               	movf	??_main,w
   985  0206  00F0               	movwf	I2C_Master_Write@d
   986  0207  0865               	movf	??_main+1,w
   987  0208  00F1               	movwf	I2C_Master_Write@d+1
   988  0209  160A  118A  27C0  120A  118A  	fcall	_I2C_Master_Write
   989  020E                     l2632:	
   990                           
   991                           ;Laboratorio_5_Master.c: 48:         I2C_Master_Stop();
   992  020E  160A  118A  27B7  120A  118A  	fcall	_I2C_Master_Stop
   993  0213                     l2634:	
   994                           
   995                           ;Laboratorio_5_Master.c: 49:         _delay((unsigned long)((100)*(4000000/4000.0)));
   996  0213  3082               	movlw	130
   997  0214  1283               	bcf	3,5	;RP0=0, select bank0
   998  0215  1303               	bcf	3,6	;RP1=0, select bank0
   999  0216  00E5               	movwf	??_main+1
  1000  0217  30DD               	movlw	221
  1001  0218  00E4               	movwf	??_main
  1002  0219                     u3447:	
  1003  0219  0BE4               	decfsz	??_main,f
  1004  021A  2A19               	goto	u3447
  1005  021B  0BE5               	decfsz	??_main+1,f
  1006  021C  2A19               	goto	u3447
  1007  021D                     l2636:	
  1008                           
  1009                           ;Laboratorio_5_Master.c: 53:         I2C_Master_Start();
  1010  021D  160A  118A  27AE  120A  118A  	fcall	_I2C_Master_Start
  1011  0222                     l2638:	
  1012                           
  1013                           ;Laboratorio_5_Master.c: 54:         I2C_Master_Write(0x31);
  1014  0222  3031               	movlw	49
  1015  0223  00F0               	movwf	I2C_Master_Write@d
  1016  0224  3000               	movlw	0
  1017  0225  00F1               	movwf	I2C_Master_Write@d+1
  1018  0226  160A  118A  27C0  120A  118A  	fcall	_I2C_Master_Write
  1019  022B                     l2640:	
  1020                           
  1021                           ;Laboratorio_5_Master.c: 55:         valana = I2C_Master_Read(0);
  1022  022B  3000               	movlw	0
  1023  022C  00F0               	movwf	I2C_Master_Read@a
  1024  022D  00F1               	movwf	I2C_Master_Read@a+1
  1025  022E  120A  158A  211B  120A  118A  	fcall	_I2C_Master_Read
  1026  0233  0870               	movf	?_I2C_Master_Read,w
  1027  0234  1283               	bcf	3,5	;RP0=0, select bank0
  1028  0235  1303               	bcf	3,6	;RP1=0, select bank0
  1029  0236  00E4               	movwf	??_main
  1030  0237  0864               	movf	??_main,w
  1031  0238  00EE               	movwf	_valana
  1032  0239                     l2642:	
  1033                           
  1034                           ;Laboratorio_5_Master.c: 56:         I2C_Master_Stop();
  1035  0239  160A  118A  27B7  120A  118A  	fcall	_I2C_Master_Stop
  1036  023E                     l2644:	
  1037                           
  1038                           ;Laboratorio_5_Master.c: 57:         _delay((unsigned long)((100)*(4000000/4000.0)));
  1039  023E  3082               	movlw	130
  1040  023F  1283               	bcf	3,5	;RP0=0, select bank0
  1041  0240  1303               	bcf	3,6	;RP1=0, select bank0
  1042  0241  00E5               	movwf	??_main+1
  1043  0242  30DD               	movlw	221
  1044  0243  00E4               	movwf	??_main
  1045  0244                     u3457:	
  1046  0244  0BE4               	decfsz	??_main,f
  1047  0245  2A44               	goto	u3457
  1048  0246  0BE5               	decfsz	??_main+1,f
  1049  0247  2A44               	goto	u3457
  1050  0248                     l2646:	
  1051                           
  1052                           ;Laboratorio_5_Master.c: 58:         desecho++;
  1053  0248  3001               	movlw	1
  1054  0249  1283               	bcf	3,5	;RP0=0, select bank0
  1055  024A  1303               	bcf	3,6	;RP1=0, select bank0
  1056  024B  00E4               	movwf	??_main
  1057  024C  0864               	movf	??_main,w
  1058  024D  07ED               	addwf	_desecho,f
  1059  024E                     l2648:	
  1060                           
  1061                           ;Laboratorio_5_Master.c: 59:         PORTA = valana;
  1062  024E  086E               	movf	_valana,w
  1063  024F  0085               	movwf	5	;volatile
  1064  0250                     l2650:	
  1065                           
  1066                           ;Laboratorio_5_Master.c: 61:         voltaje=(valana*5.0)/255.0;
  1067  0250  3043               	movlw	67
  1068  0251  00CD               	movwf	___fldiv@a+3
  1069  0252  307F               	movlw	127
  1070  0253  00CC               	movwf	___fldiv@a+2
  1071  0254  3000               	movlw	0
  1072  0255  00CB               	movwf	___fldiv@a+1
  1073  0256  3000               	movlw	0
  1074  0257  00CA               	movwf	___fldiv@a
  1075  0258  3040               	movlw	64
  1076  0259  00B3               	movwf	___flmul@b+3
  1077  025A  30A0               	movlw	160
  1078  025B  00B2               	movwf	___flmul@b+2
  1079  025C  3000               	movlw	0
  1080  025D  00B1               	movwf	___flmul@b+1
  1081  025E  3000               	movlw	0
  1082  025F  00B0               	movwf	___flmul@b
  1083  0260  086E               	movf	_valana,w
  1084  0261  00E4               	movwf	??_main
  1085  0262  01E5               	clrf	??_main+1
  1086  0263  01E6               	clrf	??_main+2
  1087  0264  01E7               	clrf	??_main+3
  1088  0265  0867               	movf	??_main+3,w
  1089  0266  00F3               	movwf	___xxtofl@val+3
  1090  0267  0866               	movf	??_main+2,w
  1091  0268  00F2               	movwf	___xxtofl@val+2
  1092  0269  0865               	movf	??_main+1,w
  1093  026A  00F1               	movwf	___xxtofl@val+1
  1094  026B  0864               	movf	??_main,w
  1095  026C  00F0               	movwf	___xxtofl@val
  1096  026D  3001               	movlw	1
  1097  026E  120A  158A  22D1  120A  118A  	fcall	___xxtofl
  1098  0273  0873               	movf	?___xxtofl+3,w
  1099  0274  1283               	bcf	3,5	;RP0=0, select bank0
  1100  0275  1303               	bcf	3,6	;RP1=0, select bank0
  1101  0276  00B7               	movwf	___flmul@a+3
  1102  0277  0872               	movf	?___xxtofl+2,w
  1103  0278  00B6               	movwf	___flmul@a+2
  1104  0279  0871               	movf	?___xxtofl+1,w
  1105  027A  00B5               	movwf	___flmul@a+1
  1106  027B  0870               	movf	?___xxtofl,w
  1107  027C  00B4               	movwf	___flmul@a
  1108  027D  120A  118A  2489  120A  118A  	fcall	___flmul
  1109  0282  1283               	bcf	3,5	;RP0=0, select bank0
  1110  0283  1303               	bcf	3,6	;RP1=0, select bank0
  1111  0284  0833               	movf	?___flmul+3,w
  1112  0285  00D1               	movwf	___fldiv@b+3
  1113  0286  0832               	movf	?___flmul+2,w
  1114  0287  00D0               	movwf	___fldiv@b+2
  1115  0288  0831               	movf	?___flmul+1,w
  1116  0289  00CF               	movwf	___fldiv@b+1
  1117  028A  0830               	movf	?___flmul,w
  1118  028B  00CE               	movwf	___fldiv@b
  1119  028C  120A  158A  238B  120A  118A  	fcall	___fldiv
  1120  0291  1283               	bcf	3,5	;RP0=0, select bank0
  1121  0292  1303               	bcf	3,6	;RP1=0, select bank0
  1122  0293  084D               	movf	?___fldiv+3,w
  1123  0294  1683               	bsf	3,5	;RP0=1, select bank1
  1124  0295  1303               	bcf	3,6	;RP1=0, select bank1
  1125  0296  00A7               	movwf	(_voltaje+3)^(0+128)
  1126  0297  1283               	bcf	3,5	;RP0=0, select bank0
  1127  0298  1303               	bcf	3,6	;RP1=0, select bank0
  1128  0299  084C               	movf	?___fldiv+2,w
  1129  029A  1683               	bsf	3,5	;RP0=1, select bank1
  1130  029B  1303               	bcf	3,6	;RP1=0, select bank1
  1131  029C  00A6               	movwf	(_voltaje+2)^(0+128)
  1132  029D  1283               	bcf	3,5	;RP0=0, select bank0
  1133  029E  1303               	bcf	3,6	;RP1=0, select bank0
  1134  029F  084B               	movf	?___fldiv+1,w
  1135  02A0  1683               	bsf	3,5	;RP0=1, select bank1
  1136  02A1  1303               	bcf	3,6	;RP1=0, select bank1
  1137  02A2  00A5               	movwf	(_voltaje+1)^(0+128)
  1138  02A3  1283               	bcf	3,5	;RP0=0, select bank0
  1139  02A4  1303               	bcf	3,6	;RP1=0, select bank0
  1140  02A5  084A               	movf	?___fldiv,w
  1141  02A6  1683               	bsf	3,5	;RP0=1, select bank1
  1142  02A7  1303               	bcf	3,6	;RP1=0, select bank1
  1143  02A8  00A4               	movwf	_voltaje^(0+128)
  1144  02A9                     l2652:	
  1145                           
  1146                           ;Laboratorio_5_Master.c: 62:         _delay((unsigned long)((5)*(4000000/4000.0)));
  1147  02A9  3007               	movlw	7
  1148  02AA  1283               	bcf	3,5	;RP0=0, select bank0
  1149  02AB  1303               	bcf	3,6	;RP1=0, select bank0
  1150  02AC  00E5               	movwf	??_main+1
  1151  02AD  307C               	movlw	124
  1152  02AE  00E4               	movwf	??_main
  1153  02AF                     u3467:	
  1154  02AF  0BE4               	decfsz	??_main,f
  1155  02B0  2AAF               	goto	u3467
  1156  02B1  0BE5               	decfsz	??_main+1,f
  1157  02B2  2AAF               	goto	u3467
  1158  02B3  0000               	nop
  1159  02B4                     l2654:	
  1160                           
  1161                           ;Laboratorio_5_Master.c: 63:         float2int(voltaje);
  1162  02B4  1683               	bsf	3,5	;RP0=1, select bank1
  1163  02B5  1303               	bcf	3,6	;RP1=0, select bank1
  1164  02B6  0827               	movf	(_voltaje+3)^(0+128),w
  1165  02B7  1283               	bcf	3,5	;RP0=0, select bank0
  1166  02B8  1303               	bcf	3,6	;RP1=0, select bank0
  1167  02B9  00D8               	movwf	float2int@valor+3
  1168  02BA  1683               	bsf	3,5	;RP0=1, select bank1
  1169  02BB  1303               	bcf	3,6	;RP1=0, select bank1
  1170  02BC  0826               	movf	(_voltaje+2)^(0+128),w
  1171  02BD  1283               	bcf	3,5	;RP0=0, select bank0
  1172  02BE  1303               	bcf	3,6	;RP1=0, select bank0
  1173  02BF  00D7               	movwf	float2int@valor+2
  1174  02C0  1683               	bsf	3,5	;RP0=1, select bank1
  1175  02C1  1303               	bcf	3,6	;RP1=0, select bank1
  1176  02C2  0825               	movf	(_voltaje+1)^(0+128),w
  1177  02C3  1283               	bcf	3,5	;RP0=0, select bank0
  1178  02C4  1303               	bcf	3,6	;RP1=0, select bank0
  1179  02C5  00D6               	movwf	float2int@valor+1
  1180  02C6  1683               	bsf	3,5	;RP0=1, select bank1
  1181  02C7  1303               	bcf	3,6	;RP1=0, select bank1
  1182  02C8  0824               	movf	_voltaje^(0+128),w
  1183  02C9  1283               	bcf	3,5	;RP0=0, select bank0
  1184  02CA  1303               	bcf	3,6	;RP1=0, select bank0
  1185  02CB  00D5               	movwf	float2int@valor
  1186  02CC  120A  118A  20B8  120A  118A  	fcall	_float2int
  1187  02D1                     l2656:	
  1188                           
  1189                           ;Laboratorio_5_Master.c: 64:         _delay((unsigned long)((5)*(4000000/4000.0)));
  1190  02D1  3007               	movlw	7
  1191  02D2  1283               	bcf	3,5	;RP0=0, select bank0
  1192  02D3  1303               	bcf	3,6	;RP1=0, select bank0
  1193  02D4  00E5               	movwf	??_main+1
  1194  02D5  307C               	movlw	124
  1195  02D6  00E4               	movwf	??_main
  1196  02D7                     u3477:	
  1197  02D7  0BE4               	decfsz	??_main,f
  1198  02D8  2AD7               	goto	u3477
  1199  02D9  0BE5               	decfsz	??_main+1,f
  1200  02DA  2AD7               	goto	u3477
  1201  02DB  0000               	nop
  1202  02DC                     l2658:	
  1203                           
  1204                           ;Laboratorio_5_Master.c: 65:         lcd_com(193);
  1205  02DC  30C1               	movlw	193
  1206  02DD  120A  158A  2148  120A  118A  	fcall	_lcd_com
  1207  02E2                     l2660:	
  1208                           
  1209                           ;Laboratorio_5_Master.c: 66:         itoa(valana1,valanapot1,10);
  1210  02E2  1283               	bcf	3,5	;RP0=0, select bank0
  1211  02E3  1303               	bcf	3,6	;RP1=0, select bank0
  1212  02E4  086B               	movf	_valanapot1+1,w
  1213  02E5  00A5               	movwf	itoa@val+1
  1214  02E6  086A               	movf	_valanapot1,w
  1215  02E7  00A4               	movwf	itoa@val
  1216  02E8  300A               	movlw	10
  1217  02E9  00A6               	movwf	itoa@base
  1218  02EA  3000               	movlw	0
  1219  02EB  00A7               	movwf	itoa@base+1
  1220  02EC  30D4               	movlw	(low (_valana1| 0))& (0+255)
  1221  02ED  120A  158A  2058  120A  118A  	fcall	_itoa
  1222  02F2                     l2662:	
  1223                           
  1224                           ;Laboratorio_5_Master.c: 67:         itoa(valana2,valanapot2,10);
  1225  02F2  1283               	bcf	3,5	;RP0=0, select bank0
  1226  02F3  1303               	bcf	3,6	;RP1=0, select bank0
  1227  02F4  0869               	movf	_valanapot2+1,w
  1228  02F5  00A5               	movwf	itoa@val+1
  1229  02F6  0868               	movf	_valanapot2,w
  1230  02F7  00A4               	movwf	itoa@val
  1231  02F8  300A               	movlw	10
  1232  02F9  00A6               	movwf	itoa@base
  1233  02FA  3000               	movlw	0
  1234  02FB  00A7               	movwf	itoa@base+1
  1235  02FC  30CC               	movlw	(low (_valana2| 0))& (0+255)
  1236  02FD  120A  158A  2058  120A  118A  	fcall	_itoa
  1237  0302                     l2664:	
  1238                           
  1239                           ;Laboratorio_5_Master.c: 68:         itoa(valana3,valanapot3,10);
  1240  0302  1683               	bsf	3,5	;RP0=1, select bank1
  1241  0303  1303               	bcf	3,6	;RP1=0, select bank1
  1242  0304  0829               	movf	(_valanapot3+1)^(0+128),w
  1243  0305  1283               	bcf	3,5	;RP0=0, select bank0
  1244  0306  1303               	bcf	3,6	;RP1=0, select bank0
  1245  0307  00A5               	movwf	itoa@val+1
  1246  0308  1683               	bsf	3,5	;RP0=1, select bank1
  1247  0309  1303               	bcf	3,6	;RP1=0, select bank1
  1248  030A  0828               	movf	_valanapot3^(0+128),w
  1249  030B  1283               	bcf	3,5	;RP0=0, select bank0
  1250  030C  1303               	bcf	3,6	;RP1=0, select bank0
  1251  030D  00A4               	movwf	itoa@val
  1252  030E  300A               	movlw	10
  1253  030F  00A6               	movwf	itoa@base
  1254  0310  3000               	movlw	0
  1255  0311  00A7               	movwf	itoa@base+1
  1256  0312  30C4               	movlw	(low (_valana3| 0))& (0+255)
  1257  0313  120A  158A  2058  120A  118A  	fcall	_itoa
  1258  0318                     l2666:	
  1259                           
  1260                           ;Laboratorio_5_Master.c: 69:         lcd_msg (valana1);
  1261  0318  30D4               	movlw	(low (_valana1| 0))& (0+255)
  1262  0319  00F3               	movwf	lcd_msg@c
  1263  031A  3000               	movlw	0
  1264  031B  00F4               	movwf	lcd_msg@c+1
  1265  031C  120A  158A  207E  120A  118A  	fcall	_lcd_msg
  1266  0321                     l2668:	
  1267                           
  1268                           ;Laboratorio_5_Master.c: 70:         lcd_com(194);
  1269  0321  30C2               	movlw	194
  1270  0322  120A  158A  2148  120A  118A  	fcall	_lcd_com
  1271  0327                     l2670:	
  1272                           
  1273                           ;Laboratorio_5_Master.c: 71:         lcd_msg (".");
  1274  0327  3015               	movlw	(low ((STR_2-__stringbase)| (0+32768)))& (0+255)
  1275  0328  00F3               	movwf	lcd_msg@c
  1276  0329  3080               	movlw	128
  1277  032A  00F4               	movwf	lcd_msg@c+1
  1278  032B  120A  158A  207E  120A  118A  	fcall	_lcd_msg
  1279  0330                     l2672:	
  1280                           
  1281                           ;Laboratorio_5_Master.c: 72:         lcd_com(195);
  1282  0330  30C3               	movlw	195
  1283  0331  120A  158A  2148  120A  118A  	fcall	_lcd_com
  1284  0336                     l2674:	
  1285                           
  1286                           ;Laboratorio_5_Master.c: 73:         lcd_msg (valana2);
  1287  0336  30CC               	movlw	(low (_valana2| 0))& (0+255)
  1288  0337  00F3               	movwf	lcd_msg@c
  1289  0338  3000               	movlw	0
  1290  0339  00F4               	movwf	lcd_msg@c+1
  1291  033A  120A  158A  207E  120A  118A  	fcall	_lcd_msg
  1292  033F                     l2676:	
  1293                           
  1294                           ;Laboratorio_5_Master.c: 74:         lcd_com(196);
  1295  033F  30C4               	movlw	196
  1296  0340  120A  158A  2148  120A  118A  	fcall	_lcd_com
  1297  0345                     l2678:	
  1298                           
  1299                           ;Laboratorio_5_Master.c: 75:         lcd_msg (valana3);
  1300  0345  30C4               	movlw	(low (_valana3| 0))& (0+255)
  1301  0346  00F3               	movwf	lcd_msg@c
  1302  0347  3000               	movlw	0
  1303  0348  00F4               	movwf	lcd_msg@c+1
  1304  0349  120A  158A  207E  120A  118A  	fcall	_lcd_msg
  1305  034E                     l2680:	
  1306                           
  1307                           ;Laboratorio_5_Master.c: 76:         voltaje = 0;
  1308  034E  3000               	movlw	0
  1309  034F  1683               	bsf	3,5	;RP0=1, select bank1
  1310  0350  1303               	bcf	3,6	;RP1=0, select bank1
  1311  0351  00A7               	movwf	(_voltaje+3)^(0+128)
  1312  0352  3000               	movlw	0
  1313  0353  00A6               	movwf	(_voltaje+2)^(0+128)
  1314  0354  3000               	movlw	0
  1315  0355  00A5               	movwf	(_voltaje+1)^(0+128)
  1316  0356  3000               	movlw	0
  1317  0357  00A4               	movwf	_voltaje^(0+128)
  1318  0358                     l2682:	
  1319                           
  1320                           ;Laboratorio_5_Master.c: 77:         valana=0;
  1321  0358  1283               	bcf	3,5	;RP0=0, select bank0
  1322  0359  1303               	bcf	3,6	;RP1=0, select bank0
  1323  035A  01EE               	clrf	_valana
  1324  035B                     l2684:	
  1325                           
  1326                           ;Laboratorio_5_Master.c: 79:         I2C_Master_Start();
  1327  035B  160A  118A  27AE  120A  118A  	fcall	_I2C_Master_Start
  1328  0360                     l2686:	
  1329                           
  1330                           ;Laboratorio_5_Master.c: 80:         I2C_Master_Write(0x40);
  1331  0360  3040               	movlw	64
  1332  0361  00F0               	movwf	I2C_Master_Write@d
  1333  0362  3000               	movlw	0
  1334  0363  00F1               	movwf	I2C_Master_Write@d+1
  1335  0364  160A  118A  27C0  120A  118A  	fcall	_I2C_Master_Write
  1336  0369                     l2688:	
  1337                           
  1338                           ;Laboratorio_5_Master.c: 81:         I2C_Master_Write(desecho);
  1339  0369  1283               	bcf	3,5	;RP0=0, select bank0
  1340  036A  1303               	bcf	3,6	;RP1=0, select bank0
  1341  036B  086D               	movf	_desecho,w
  1342  036C  00E4               	movwf	??_main
  1343  036D  01E5               	clrf	??_main+1
  1344  036E  0864               	movf	??_main,w
  1345  036F  00F0               	movwf	I2C_Master_Write@d
  1346  0370  0865               	movf	??_main+1,w
  1347  0371  00F1               	movwf	I2C_Master_Write@d+1
  1348  0372  160A  118A  27C0  120A  118A  	fcall	_I2C_Master_Write
  1349  0377                     l2690:	
  1350                           
  1351                           ;Laboratorio_5_Master.c: 82:         I2C_Master_Stop();
  1352  0377  160A  118A  27B7  120A  118A  	fcall	_I2C_Master_Stop
  1353  037C                     l2692:	
  1354                           
  1355                           ;Laboratorio_5_Master.c: 83:         _delay((unsigned long)((200)*(4000000/4000.0)));
  1356  037C  3002               	movlw	2
  1357  037D  1283               	bcf	3,5	;RP0=0, select bank0
  1358  037E  1303               	bcf	3,6	;RP1=0, select bank0
  1359  037F  00E6               	movwf	??_main+2
  1360  0380  3004               	movlw	4
  1361  0381  00E5               	movwf	??_main+1
  1362  0382  30B9               	movlw	185
  1363  0383  00E4               	movwf	??_main
  1364  0384                     u3487:	
  1365  0384  0BE4               	decfsz	??_main,f
  1366  0385  2B84               	goto	u3487
  1367  0386  0BE5               	decfsz	??_main+1,f
  1368  0387  2B84               	goto	u3487
  1369  0388  0BE6               	decfsz	??_main+2,f
  1370  0389  2B84               	goto	u3487
  1371  038A  2B8B               	nop2
  1372  038B                     l2694:	
  1373                           
  1374                           ;Laboratorio_5_Master.c: 86:         contador = 0;
  1375  038B  1283               	bcf	3,5	;RP0=0, select bank0
  1376  038C  1303               	bcf	3,6	;RP1=0, select bank0
  1377  038D  01EC               	clrf	_contador
  1378  038E                     l2696:	
  1379                           
  1380                           ;Laboratorio_5_Master.c: 87:         I2C_Master_Start();
  1381  038E  160A  118A  27AE  120A  118A  	fcall	_I2C_Master_Start
  1382  0393                     l2698:	
  1383                           
  1384                           ;Laboratorio_5_Master.c: 88:         I2C_Master_Write(0x41);
  1385  0393  3041               	movlw	65
  1386  0394  00F0               	movwf	I2C_Master_Write@d
  1387  0395  3000               	movlw	0
  1388  0396  00F1               	movwf	I2C_Master_Write@d+1
  1389  0397  160A  118A  27C0  120A  118A  	fcall	_I2C_Master_Write
  1390  039C                     l2700:	
  1391                           
  1392                           ;Laboratorio_5_Master.c: 89:         contador = I2C_Master_Read(0);
  1393  039C  3000               	movlw	0
  1394  039D  00F0               	movwf	I2C_Master_Read@a
  1395  039E  00F1               	movwf	I2C_Master_Read@a+1
  1396  039F  120A  158A  211B  120A  118A  	fcall	_I2C_Master_Read
  1397  03A4  0870               	movf	?_I2C_Master_Read,w
  1398  03A5  1283               	bcf	3,5	;RP0=0, select bank0
  1399  03A6  1303               	bcf	3,6	;RP1=0, select bank0
  1400  03A7  00E4               	movwf	??_main
  1401  03A8  0864               	movf	??_main,w
  1402  03A9  00EC               	movwf	_contador
  1403  03AA                     l2702:	
  1404                           
  1405                           ;Laboratorio_5_Master.c: 90:         I2C_Master_Stop();
  1406  03AA  160A  118A  27B7  120A  118A  	fcall	_I2C_Master_Stop
  1407  03AF                     l2704:	
  1408                           
  1409                           ;Laboratorio_5_Master.c: 91:         _delay((unsigned long)((200)*(4000000/4000.0)));
  1410  03AF  3002               	movlw	2
  1411  03B0  1283               	bcf	3,5	;RP0=0, select bank0
  1412  03B1  1303               	bcf	3,6	;RP1=0, select bank0
  1413  03B2  00E6               	movwf	??_main+2
  1414  03B3  3004               	movlw	4
  1415  03B4  00E5               	movwf	??_main+1
  1416  03B5  30B9               	movlw	185
  1417  03B6  00E4               	movwf	??_main
  1418  03B7                     u3497:	
  1419  03B7  0BE4               	decfsz	??_main,f
  1420  03B8  2BB7               	goto	u3497
  1421  03B9  0BE5               	decfsz	??_main+1,f
  1422  03BA  2BB7               	goto	u3497
  1423  03BB  0BE6               	decfsz	??_main+2,f
  1424  03BC  2BB7               	goto	u3497
  1425  03BD  2BBE               	nop2
  1426  03BE                     l2706:	
  1427                           
  1428                           ;Laboratorio_5_Master.c: 92:         desecho++;
  1429  03BE  3001               	movlw	1
  1430  03BF  1283               	bcf	3,5	;RP0=0, select bank0
  1431  03C0  1303               	bcf	3,6	;RP1=0, select bank0
  1432  03C1  00E4               	movwf	??_main
  1433  03C2  0864               	movf	??_main,w
  1434  03C3  07ED               	addwf	_desecho,f
  1435  03C4                     l2708:	
  1436                           
  1437                           ;Laboratorio_5_Master.c: 93:         PORTA = contador;
  1438  03C4  086C               	movf	_contador,w
  1439  03C5  0085               	movwf	5	;volatile
  1440  03C6                     l2710:	
  1441                           
  1442                           ;Laboratorio_5_Master.c: 99:         lcd_com(198);
  1443  03C6  30C6               	movlw	198
  1444  03C7  120A  158A  2148  120A  118A  	fcall	_lcd_com
  1445  03CC                     l2712:	
  1446                           
  1447                           ;Laboratorio_5_Master.c: 100:         itoa(contador1,contador,10);
  1448  03CC  1283               	bcf	3,5	;RP0=0, select bank0
  1449  03CD  1303               	bcf	3,6	;RP1=0, select bank0
  1450  03CE  086C               	movf	_contador,w
  1451  03CF  00E4               	movwf	??_main
  1452  03D0  01E5               	clrf	??_main+1
  1453  03D1  0864               	movf	??_main,w
  1454  03D2  00A4               	movwf	itoa@val
  1455  03D3  0865               	movf	??_main+1,w
  1456  03D4  00A5               	movwf	itoa@val+1
  1457  03D5  300A               	movlw	10
  1458  03D6  00A6               	movwf	itoa@base
  1459  03D7  3000               	movlw	0
  1460  03D8  00A7               	movwf	itoa@base+1
  1461  03D9  30BC               	movlw	(low (_contador1| 0))& (0+255)
  1462  03DA  120A  158A  2058  120A  118A  	fcall	_itoa
  1463  03DF                     l2714:	
  1464                           
  1465                           ;Laboratorio_5_Master.c: 103:         lcd_msg (contador1);
  1466  03DF  30BC               	movlw	(low (_contador1| 0))& (0+255)
  1467  03E0  00F3               	movwf	lcd_msg@c
  1468  03E1  3000               	movlw	0
  1469  03E2  00F4               	movwf	lcd_msg@c+1
  1470  03E3  120A  158A  207E  120A  118A  	fcall	_lcd_msg
  1471                           
  1472                           ;Laboratorio_5_Master.c: 114:         I2C_Master_Start();
  1473  03E8  160A  118A  27AE  120A  118A  	fcall	_I2C_Master_Start
  1474                           
  1475                           ;Laboratorio_5_Master.c: 115:         I2C_Master_Write(0x50);
  1476  03ED  3050               	movlw	80
  1477  03EE  00F0               	movwf	I2C_Master_Write@d
  1478  03EF  3000               	movlw	0
  1479  03F0  00F1               	movwf	I2C_Master_Write@d+1
  1480  03F1  160A  118A  27C0  120A  118A  	fcall	_I2C_Master_Write
  1481                           
  1482                           ;Laboratorio_5_Master.c: 116:         I2C_Master_Write(desecho);
  1483  03F6  1283               	bcf	3,5	;RP0=0, select bank0
  1484  03F7  1303               	bcf	3,6	;RP1=0, select bank0
  1485  03F8  086D               	movf	_desecho,w
  1486  03F9  00E4               	movwf	??_main
  1487  03FA  01E5               	clrf	??_main+1
  1488  03FB  0864               	movf	??_main,w
  1489  03FC  00F0               	movwf	I2C_Master_Write@d
  1490  03FD  0865               	movf	??_main+1,w
  1491  03FE  00F1               	movwf	I2C_Master_Write@d+1
  1492  03FF  160A  118A  27C0  120A  118A  	fcall	_I2C_Master_Write
  1493                           
  1494                           ;Laboratorio_5_Master.c: 117:         I2C_Master_Stop();
  1495  0404  160A  118A  27B7  120A  118A  	fcall	_I2C_Master_Stop
  1496  0409                     l2716:	
  1497                           
  1498                           ;Laboratorio_5_Master.c: 118:         _delay((unsigned long)((200)*(4000000/4000.0)));
  1499  0409  3002               	movlw	2
  1500  040A  1283               	bcf	3,5	;RP0=0, select bank0
  1501  040B  1303               	bcf	3,6	;RP1=0, select bank0
  1502  040C  00E6               	movwf	??_main+2
  1503  040D  3004               	movlw	4
  1504  040E  00E5               	movwf	??_main+1
  1505  040F  30B9               	movlw	185
  1506  0410  00E4               	movwf	??_main
  1507  0411                     u3507:	
  1508  0411  0BE4               	decfsz	??_main,f
  1509  0412  2C11               	goto	u3507
  1510  0413  0BE5               	decfsz	??_main+1,f
  1511  0414  2C11               	goto	u3507
  1512  0415  0BE6               	decfsz	??_main+2,f
  1513  0416  2C11               	goto	u3507
  1514  0417  2C18               	nop2
  1515  0418                     l2718:	
  1516                           
  1517                           ;Laboratorio_5_Master.c: 121:         contador = 0;
  1518  0418  1283               	bcf	3,5	;RP0=0, select bank0
  1519  0419  1303               	bcf	3,6	;RP1=0, select bank0
  1520  041A  01EC               	clrf	_contador
  1521  041B                     l2720:	
  1522                           
  1523                           ;Laboratorio_5_Master.c: 122:         I2C_Master_Start();
  1524  041B  160A  118A  27AE  120A  118A  	fcall	_I2C_Master_Start
  1525  0420                     l2722:	
  1526                           
  1527                           ;Laboratorio_5_Master.c: 123:         I2C_Master_Write(0x51);
  1528  0420  3051               	movlw	81
  1529  0421  00F0               	movwf	I2C_Master_Write@d
  1530  0422  3000               	movlw	0
  1531  0423  00F1               	movwf	I2C_Master_Write@d+1
  1532  0424  160A  118A  27C0  120A  118A  	fcall	_I2C_Master_Write
  1533  0429                     l2724:	
  1534                           
  1535                           ;Laboratorio_5_Master.c: 124:         distancia = I2C_Master_Read(0);
  1536  0429  3000               	movlw	0
  1537  042A  00F0               	movwf	I2C_Master_Read@a
  1538  042B  00F1               	movwf	I2C_Master_Read@a+1
  1539  042C  120A  158A  211B  120A  118A  	fcall	_I2C_Master_Read
  1540  0431  0871               	movf	?_I2C_Master_Read+1,w
  1541  0432  1683               	bsf	3,5	;RP0=1, select bank1
  1542  0433  1303               	bcf	3,6	;RP1=0, select bank1
  1543  0434  00AB               	movwf	(_distancia+1)^(0+128)
  1544  0435  0870               	movf	?_I2C_Master_Read,w
  1545  0436  00AA               	movwf	_distancia^(0+128)
  1546  0437                     l2726:	
  1547                           
  1548                           ;Laboratorio_5_Master.c: 125:         I2C_Master_Stop();
  1549  0437  160A  118A  27B7  120A  118A  	fcall	_I2C_Master_Stop
  1550  043C                     l2728:	
  1551                           
  1552                           ;Laboratorio_5_Master.c: 126:         _delay((unsigned long)((200)*(4000000/4000.0)));
  1553  043C  3002               	movlw	2
  1554  043D  1283               	bcf	3,5	;RP0=0, select bank0
  1555  043E  1303               	bcf	3,6	;RP1=0, select bank0
  1556  043F  00E6               	movwf	??_main+2
  1557  0440  3004               	movlw	4
  1558  0441  00E5               	movwf	??_main+1
  1559  0442  30B9               	movlw	185
  1560  0443  00E4               	movwf	??_main
  1561  0444                     u3517:	
  1562  0444  0BE4               	decfsz	??_main,f
  1563  0445  2C44               	goto	u3517
  1564  0446  0BE5               	decfsz	??_main+1,f
  1565  0447  2C44               	goto	u3517
  1566  0448  0BE6               	decfsz	??_main+2,f
  1567  0449  2C44               	goto	u3517
  1568  044A  2C4B               	nop2
  1569  044B                     l2730:	
  1570                           
  1571                           ;Laboratorio_5_Master.c: 127:         desecho++;
  1572  044B  3001               	movlw	1
  1573  044C  1283               	bcf	3,5	;RP0=0, select bank0
  1574  044D  1303               	bcf	3,6	;RP1=0, select bank0
  1575  044E  00E4               	movwf	??_main
  1576  044F  0864               	movf	??_main,w
  1577  0450  07ED               	addwf	_desecho,f
  1578  0451                     l2732:	
  1579                           
  1580                           ;Laboratorio_5_Master.c: 134:         lcd_com(203);
  1581  0451  30CB               	movlw	203
  1582  0452  120A  158A  2148  120A  118A  	fcall	_lcd_com
  1583  0457                     l2734:	
  1584                           
  1585                           ;Laboratorio_5_Master.c: 135:         itoa(distancia1,distancia,10);
  1586  0457  1683               	bsf	3,5	;RP0=1, select bank1
  1587  0458  1303               	bcf	3,6	;RP1=0, select bank1
  1588  0459  082B               	movf	(_distancia+1)^(0+128),w
  1589  045A  1283               	bcf	3,5	;RP0=0, select bank0
  1590  045B  1303               	bcf	3,6	;RP1=0, select bank0
  1591  045C  00A5               	movwf	itoa@val+1
  1592  045D  1683               	bsf	3,5	;RP0=1, select bank1
  1593  045E  1303               	bcf	3,6	;RP1=0, select bank1
  1594  045F  082A               	movf	_distancia^(0+128),w
  1595  0460  1283               	bcf	3,5	;RP0=0, select bank0
  1596  0461  1303               	bcf	3,6	;RP1=0, select bank0
  1597  0462  00A4               	movwf	itoa@val
  1598  0463  300A               	movlw	10
  1599  0464  00A6               	movwf	itoa@base
  1600  0465  3000               	movlw	0
  1601  0466  00A7               	movwf	itoa@base+1
  1602  0467  30AC               	movlw	(low (_distancia1| 0))& (0+255)
  1603  0468  120A  158A  2058  120A  118A  	fcall	_itoa
  1604  046D                     l2736:	
  1605                           
  1606                           ;Laboratorio_5_Master.c: 138:         lcd_msg (distancia1);
  1607  046D  30AC               	movlw	(low (_distancia1| 0))& (0+255)
  1608  046E  00F3               	movwf	lcd_msg@c
  1609  046F  3000               	movlw	0
  1610  0470  00F4               	movwf	lcd_msg@c+1
  1611  0471  120A  158A  207E  120A  118A  	fcall	_lcd_msg
  1612  0476                     l2738:	
  1613                           
  1614                           ;Laboratorio_5_Master.c: 139:         lcd_com(206);
  1615  0476  30CE               	movlw	206
  1616  0477  120A  158A  2148  120A  118A  	fcall	_lcd_com
  1617  047C                     l2740:	
  1618                           
  1619                           ;Laboratorio_5_Master.c: 140:         lcd_msg ("mm");
  1620  047C  3012               	movlw	(low ((STR_3-__stringbase)| (0+32768)))& (0+255)
  1621  047D  00F3               	movwf	lcd_msg@c
  1622  047E  3080               	movlw	128
  1623  047F  00F4               	movwf	lcd_msg@c+1
  1624  0480  120A  158A  207E  120A  118A  	fcall	_lcd_msg
  1625  0485  29E3               	goto	l2624
  1626  0486  120A  118A  2800   	ljmp	start
  1627  0489                     __end_of_main:	
  1628                           
  1629                           	psect	text1
  1630  17EC                     __ptext1:	
  1631 ;; *************** function _setup *****************
  1632 ;; Defined at:
  1633 ;;		line 78 in file "Labor5_Master.c"
  1634 ;; Parameters:    Size  Location     Type
  1635 ;;		None
  1636 ;; Auto vars:     Size  Location     Type
  1637 ;;		None
  1638 ;; Return value:  Size  Location     Type
  1639 ;;                  1    wreg      void 
  1640 ;; Registers used:
  1641 ;;		wreg, status,2
  1642 ;; Tracked objects:
  1643 ;;		On entry : 0/0
  1644 ;;		On exit  : 0/0
  1645 ;;		Unchanged: 0/0
  1646 ;; Data sizes:     COMMON   BANK0   BANK1   BANK3   BANK2
  1647 ;;      Params:         0       0       0       0       0
  1648 ;;      Locals:         0       0       0       0       0
  1649 ;;      Temps:          0       0       0       0       0
  1650 ;;      Totals:         0       0       0       0       0
  1651 ;;Total ram usage:        0 bytes
  1652 ;; Hardware stack levels used:    1
  1653 ;; This function calls:
  1654 ;;		Nothing
  1655 ;; This function is called by:
  1656 ;;		_main
  1657 ;; This function uses a non-reentrant model
  1658 ;;
  1659                           
  1660                           
  1661                           ;psect for function _setup
  1662  17EC                     _setup:	
  1663  17EC                     l2372:	
  1664                           ;incstack = 0
  1665                           ; Regs used in _setup: [wreg+status,2]
  1666                           
  1667                           
  1668                           ;Labor5_Master.c: 79:     ANSEL = 0b00000000;
  1669  17EC  1683               	bsf	3,5	;RP0=1, select bank3
  1670  17ED  1703               	bsf	3,6	;RP1=1, select bank3
  1671  17EE  0188               	clrf	8	;volatile
  1672                           
  1673                           ;Labor5_Master.c: 80:     ANSELH = 0b00000000;
  1674  17EF  0189               	clrf	9	;volatile
  1675                           
  1676                           ;Labor5_Master.c: 82:     TRISA = 0b00000000;
  1677  17F0  1683               	bsf	3,5	;RP0=1, select bank1
  1678  17F1  1303               	bcf	3,6	;RP1=0, select bank1
  1679  17F2  0185               	clrf	5	;volatile
  1680                           
  1681                           ;Labor5_Master.c: 83:     TRISB = 0b00000000;
  1682  17F3  0186               	clrf	6	;volatile
  1683  17F4                     l2374:	
  1684                           
  1685                           ;Labor5_Master.c: 84:     TRISC = 0b00011000;
  1686  17F4  3018               	movlw	24
  1687  17F5  0087               	movwf	7	;volatile
  1688  17F6                     l2376:	
  1689                           
  1690                           ;Labor5_Master.c: 85:     TRISD = 0b00000000;
  1691  17F6  0188               	clrf	8	;volatile
  1692  17F7                     l2378:	
  1693                           
  1694                           ;Labor5_Master.c: 86:     TRISE = 0b00000000;
  1695  17F7  0189               	clrf	9	;volatile
  1696  17F8                     l2380:	
  1697                           
  1698                           ;Labor5_Master.c: 88:     PORTA = 0b00000000;
  1699  17F8  1283               	bcf	3,5	;RP0=0, select bank0
  1700  17F9  1303               	bcf	3,6	;RP1=0, select bank0
  1701  17FA  0185               	clrf	5	;volatile
  1702  17FB                     l2382:	
  1703                           
  1704                           ;Labor5_Master.c: 89:     PORTB = 0b00000000;
  1705  17FB  0186               	clrf	6	;volatile
  1706  17FC                     l2384:	
  1707                           
  1708                           ;Labor5_Master.c: 90:     PORTC = 0b00000000;
  1709  17FC  0187               	clrf	7	;volatile
  1710  17FD                     l2386:	
  1711                           
  1712                           ;Labor5_Master.c: 91:     PORTD = 0b00000000;
  1713  17FD  0188               	clrf	8	;volatile
  1714  17FE                     l2388:	
  1715                           
  1716                           ;Labor5_Master.c: 92:     PORTE = 0b00000000;
  1717  17FE  0189               	clrf	9	;volatile
  1718  17FF                     l168:	
  1719  17FF  0008               	return
  1720  1800                     __end_of_setup:	
  1721                           
  1722                           	psect	text2
  1723  087E                     __ptext2:	
  1724 ;; *************** function _lcd_msg *****************
  1725 ;; Defined at:
  1726 ;;		line 64 in file "Labor5_Master.c"
  1727 ;; Parameters:    Size  Location     Type
  1728 ;;  c               2    3[COMMON] PTR unsigned char 
  1729 ;;		 -> STR_3(3), distancia1(16), contador1(8), STR_2(2), 
  1730 ;;		 -> valana3(8), valana2(8), valana1(8), STR_1(17), 
  1731 ;; Auto vars:     Size  Location     Type
  1732 ;;		None
  1733 ;; Return value:  Size  Location     Type
  1734 ;;                  1    wreg      void 
  1735 ;; Registers used:
  1736 ;;		wreg, fsr0l, fsr0h, status,2, status,0, btemp+1, pclath, cstack
  1737 ;; Tracked objects:
  1738 ;;		On entry : 0/0
  1739 ;;		On exit  : 0/0
  1740 ;;		Unchanged: 0/0
  1741 ;; Data sizes:     COMMON   BANK0   BANK1   BANK3   BANK2
  1742 ;;      Params:         2       0       0       0       0
  1743 ;;      Locals:         0       0       0       0       0
  1744 ;;      Temps:          0       0       0       0       0
  1745 ;;      Totals:         2       0       0       0       0
  1746 ;;Total ram usage:        2 bytes
  1747 ;; Hardware stack levels used:    1
  1748 ;; Hardware stack levels required when called:    2
  1749 ;; This function calls:
  1750 ;;		_lcd_dwr
  1751 ;; This function is called by:
  1752 ;;		_main
  1753 ;; This function uses a non-reentrant model
  1754 ;;
  1755                           
  1756                           
  1757                           ;psect for function _lcd_msg
  1758  087E                     _lcd_msg:	
  1759  087E                     l2402:	
  1760                           ;incstack = 0
  1761                           ; Regs used in _lcd_msg: [wreg-fsr0h+status,2+status,0+btemp+1+pclath+cstack]
  1762                           
  1763                           
  1764                           ;Labor5_Master.c: 65:     while(*c != 0)
  1765  087E  2893               	goto	l2408
  1766  087F                     l2404:	
  1767                           
  1768                           ;Labor5_Master.c: 66:         lcd_dwr(*c++);
  1769  087F  0874               	movf	lcd_msg@c+1,w
  1770  0880  00FF               	movwf	btemp+1
  1771  0881  0873               	movf	lcd_msg@c,w
  1772  0882  0084               	movwf	4
  1773  0883  120A  158A  2000  120A  158A  	fcall	stringtab
  1774  0888  160A  118A  27DA  120A  158A  	fcall	_lcd_dwr
  1775  088D                     l2406:	
  1776  088D  3001               	movlw	1
  1777  088E  07F3               	addwf	lcd_msg@c,f
  1778  088F  1803               	skipnc
  1779  0890  0AF4               	incf	lcd_msg@c+1,f
  1780  0891  3000               	movlw	0
  1781  0892  07F4               	addwf	lcd_msg@c+1,f
  1782  0893                     l2408:	
  1783                           
  1784                           ;Labor5_Master.c: 65:     while(*c != 0)
  1785  0893  0874               	movf	lcd_msg@c+1,w
  1786  0894  1283               	bcf	3,5	;RP0=0, select bank0
  1787  0895  1303               	bcf	3,6	;RP1=0, select bank0
  1788  0896  00FF               	movwf	btemp+1
  1789  0897  0873               	movf	lcd_msg@c,w
  1790  0898  0084               	movwf	4
  1791  0899  120A  158A  2000  120A  158A  	fcall	stringtab
  1792  089E  3A00               	xorlw	0
  1793  089F  1D03               	skipz
  1794  08A0  28A2               	goto	u3091
  1795  08A1  28A3               	goto	u3090
  1796  08A2                     u3091:	
  1797  08A2  287F               	goto	l2404
  1798  08A3                     u3090:	
  1799  08A3                     l162:	
  1800  08A3  0008               	return
  1801  08A4                     __end_of_lcd_msg:	
  1802                           
  1803                           	psect	text3
  1804  17DA                     __ptext3:	
  1805 ;; *************** function _lcd_dwr *****************
  1806 ;; Defined at:
  1807 ;;		line 56 in file "Labor5_Master.c"
  1808 ;; Parameters:    Size  Location     Type
  1809 ;;  x               1    wreg     unsigned char 
  1810 ;; Auto vars:     Size  Location     Type
  1811 ;;  x               1    2[COMMON] unsigned char 
  1812 ;; Return value:  Size  Location     Type
  1813 ;;                  1    wreg      void 
  1814 ;; Registers used:
  1815 ;;		wreg, status,2, status,0, pclath, cstack
  1816 ;; Tracked objects:
  1817 ;;		On entry : 0/0
  1818 ;;		On exit  : 0/0
  1819 ;;		Unchanged: 0/0
  1820 ;; Data sizes:     COMMON   BANK0   BANK1   BANK3   BANK2
  1821 ;;      Params:         0       0       0       0       0
  1822 ;;      Locals:         1       0       0       0       0
  1823 ;;      Temps:          0       0       0       0       0
  1824 ;;      Totals:         1       0       0       0       0
  1825 ;;Total ram usage:        1 bytes
  1826 ;; Hardware stack levels used:    1
  1827 ;; Hardware stack levels required when called:    1
  1828 ;; This function calls:
  1829 ;;		_enable
  1830 ;;		_lcd_ready
  1831 ;; This function is called by:
  1832 ;;		_lcd_msg
  1833 ;; This function uses a non-reentrant model
  1834 ;;
  1835                           
  1836                           
  1837                           ;psect for function _lcd_dwr
  1838  17DA                     _lcd_dwr:	
  1839                           
  1840                           ;incstack = 0
  1841                           ; Regs used in _lcd_dwr: [wreg+status,2+status,0+pclath+cstack]
  1842                           ;lcd_dwr@x stored from wreg
  1843  17DA  00F2               	movwf	lcd_dwr@x
  1844  17DB                     l2078:	
  1845                           
  1846                           ;Labor5_Master.c: 57:     lcd_ready();
  1847  17DB  120A  158A  20F2  160A  118A  	fcall	_lcd_ready
  1848  17E0                     l2080:	
  1849                           
  1850                           ;Labor5_Master.c: 58:     PORTD = x;
  1851  17E0  0872               	movf	lcd_dwr@x,w
  1852  17E1  1283               	bcf	3,5	;RP0=0, select bank0
  1853  17E2  1303               	bcf	3,6	;RP1=0, select bank0
  1854  17E3  0088               	movwf	8	;volatile
  1855  17E4                     l2082:	
  1856                           
  1857                           ;Labor5_Master.c: 59:     PORTCbits.RC5 = 1;
  1858  17E4  1687               	bsf	7,5	;volatile
  1859  17E5                     l2084:	
  1860                           
  1861                           ;Labor5_Master.c: 60:     PORTCbits.RC6 = 0;
  1862  17E5  1307               	bcf	7,6	;volatile
  1863  17E6                     l2086:	
  1864                           
  1865                           ;Labor5_Master.c: 61:     enable();
  1866  17E6  160A  118A  27CA  160A  118A  	fcall	_enable
  1867  17EB                     l156:	
  1868  17EB  0008               	return
  1869  17EC                     __end_of_lcd_dwr:	
  1870                           
  1871                           	psect	text4
  1872  08F2                     __ptext4:	
  1873 ;; *************** function _lcd_ready *****************
  1874 ;; Defined at:
  1875 ;;		line 39 in file "Labor5_Master.c"
  1876 ;; Parameters:    Size  Location     Type
  1877 ;;		None
  1878 ;; Auto vars:     Size  Location     Type
  1879 ;;		None
  1880 ;; Return value:  Size  Location     Type
  1881 ;;                  1    wreg      void 
  1882 ;; Registers used:
  1883 ;;		wreg, status,2, status,0
  1884 ;; Tracked objects:
  1885 ;;		On entry : 0/0
  1886 ;;		On exit  : 0/0
  1887 ;;		Unchanged: 0/0
  1888 ;; Data sizes:     COMMON   BANK0   BANK1   BANK3   BANK2
  1889 ;;      Params:         0       0       0       0       0
  1890 ;;      Locals:         0       0       0       0       0
  1891 ;;      Temps:          2       0       0       0       0
  1892 ;;      Totals:         2       0       0       0       0
  1893 ;;Total ram usage:        2 bytes
  1894 ;; Hardware stack levels used:    1
  1895 ;; This function calls:
  1896 ;;		Nothing
  1897 ;; This function is called by:
  1898 ;;		_lcd_dwr
  1899 ;; This function uses a non-reentrant model
  1900 ;;
  1901                           
  1902                           
  1903                           ;psect for function _lcd_ready
  1904  08F2                     _lcd_ready:	
  1905  08F2                     l1778:	
  1906                           ;incstack = 0
  1907                           ; Regs used in _lcd_ready: [wreg+status,2+status,0]
  1908                           
  1909                           
  1910                           ;Labor5_Master.c: 40:     PORTD = 0xFF;
  1911  08F2  30FF               	movlw	255
  1912  08F3  1283               	bcf	3,5	;RP0=0, select bank0
  1913  08F4  1303               	bcf	3,6	;RP1=0, select bank0
  1914  08F5  0088               	movwf	8	;volatile
  1915  08F6                     l1780:	
  1916                           
  1917                           ;Labor5_Master.c: 41:     PORTD &= 0x80;
  1918  08F6  3080               	movlw	128
  1919  08F7  00F0               	movwf	??_lcd_ready
  1920  08F8  0870               	movf	??_lcd_ready,w
  1921  08F9  0588               	andwf	8,f	;volatile
  1922  08FA                     l1782:	
  1923                           
  1924                           ;Labor5_Master.c: 42:     PORTCbits.RC5 = 0;
  1925  08FA  1287               	bcf	7,5	;volatile
  1926  08FB                     l1784:	
  1927                           
  1928                           ;Labor5_Master.c: 43:     PORTCbits.RC6 = 1;
  1929  08FB  1707               	bsf	7,6	;volatile
  1930  08FC                     l1786:	
  1931                           
  1932                           ;Labor5_Master.c: 44:     PORTCbits.RC7 = 0;
  1933  08FC  1387               	bcf	7,7	;volatile
  1934  08FD                     l1788:	
  1935                           
  1936                           ;Labor5_Master.c: 45:     _delay((unsigned long)((30)*(4000000/4000.0)));
  1937  08FD  3027               	movlw	39
  1938  08FE  00F1               	movwf	??_lcd_ready+1
  1939  08FF  30F5               	movlw	245
  1940  0900  00F0               	movwf	??_lcd_ready
  1941  0901                     u3527:	
  1942  0901  0BF0               	decfsz	??_lcd_ready,f
  1943  0902  2901               	goto	u3527
  1944  0903  0BF1               	decfsz	??_lcd_ready+1,f
  1945  0904  2901               	goto	u3527
  1946  0905                     l1790:	
  1947                           
  1948                           ;Labor5_Master.c: 46:     PORTCbits.RC7 = 1;
  1949  0905  1283               	bcf	3,5	;RP0=0, select bank0
  1950  0906  1303               	bcf	3,6	;RP1=0, select bank0
  1951  0907  1787               	bsf	7,7	;volatile
  1952                           
  1953                           ;Labor5_Master.c: 47:     if (PORTD == 0x80){
  1954  0908  3080               	movlw	128
  1955  0909  0608               	xorwf	8,w	;volatile
  1956  090A  1D03               	btfss	3,2
  1957  090B  290D               	goto	u1721
  1958  090C  290E               	goto	u1720
  1959  090D                     u1721:	
  1960  090D  291A               	goto	l153
  1961  090E                     u1720:	
  1962  090E                     l1792:	
  1963                           
  1964                           ;Labor5_Master.c: 48:     PORTCbits.RC7 = 0;
  1965  090E  1387               	bcf	7,7	;volatile
  1966  090F                     l1794:	
  1967                           
  1968                           ;Labor5_Master.c: 49:     _delay((unsigned long)((30)*(4000000/4000.0)));
  1969  090F  3027               	movlw	39
  1970  0910  00F1               	movwf	??_lcd_ready+1
  1971  0911  30F5               	movlw	245
  1972  0912  00F0               	movwf	??_lcd_ready
  1973  0913                     u3537:	
  1974  0913  0BF0               	decfsz	??_lcd_ready,f
  1975  0914  2913               	goto	u3537
  1976  0915  0BF1               	decfsz	??_lcd_ready+1,f
  1977  0916  2913               	goto	u3537
  1978  0917                     l1796:	
  1979                           
  1980                           ;Labor5_Master.c: 50:     PORTCbits.RC7 = 1;
  1981  0917  1283               	bcf	3,5	;RP0=0, select bank0
  1982  0918  1303               	bcf	3,6	;RP1=0, select bank0
  1983  0919  1787               	bsf	7,7	;volatile
  1984  091A                     l153:	
  1985                           ;Labor5_Master.c: 51:     }
  1986                           
  1987  091A  0008               	return
  1988  091B                     __end_of_lcd_ready:	
  1989                           
  1990                           	psect	text5
  1991  08CB                     __ptext5:	
  1992 ;; *************** function _lcd_ini *****************
  1993 ;; Defined at:
  1994 ;;		line 5 in file "Labor5_Master.c"
  1995 ;; Parameters:    Size  Location     Type
  1996 ;;		None
  1997 ;; Auto vars:     Size  Location     Type
  1998 ;;		None
  1999 ;; Return value:  Size  Location     Type
  2000 ;;                  1    wreg      void 
  2001 ;; Registers used:
  2002 ;;		wreg, status,2, status,0, pclath, cstack
  2003 ;; Tracked objects:
  2004 ;;		On entry : 0/0
  2005 ;;		On exit  : 0/0
  2006 ;;		Unchanged: 0/0
  2007 ;; Data sizes:     COMMON   BANK0   BANK1   BANK3   BANK2
  2008 ;;      Params:         0       0       0       0       0
  2009 ;;      Locals:         0       0       0       0       0
  2010 ;;      Temps:          2       0       0       0       0
  2011 ;;      Totals:         2       0       0       0       0
  2012 ;;Total ram usage:        2 bytes
  2013 ;; Hardware stack levels used:    1
  2014 ;; Hardware stack levels required when called:    2
  2015 ;; This function calls:
  2016 ;;		_lcd_com
  2017 ;; This function is called by:
  2018 ;;		_main
  2019 ;; This function uses a non-reentrant model
  2020 ;;
  2021                           
  2022                           
  2023                           ;psect for function _lcd_ini
  2024  08CB                     _lcd_ini:	
  2025  08CB                     l2390:	
  2026                           ;incstack = 0
  2027                           ; Regs used in _lcd_ini: [wreg+status,2+status,0+pclath+cstack]
  2028                           
  2029                           
  2030                           ;Labor5_Master.c: 6:     _delay((unsigned long)((30)*(4000000/4000.0)));
  2031  08CB  3027               	movlw	39
  2032  08CC  00F6               	movwf	??_lcd_ini+1
  2033  08CD  30F5               	movlw	245
  2034  08CE  00F5               	movwf	??_lcd_ini
  2035  08CF                     u3547:	
  2036  08CF  0BF5               	decfsz	??_lcd_ini,f
  2037  08D0  28CF               	goto	u3547
  2038  08D1  0BF6               	decfsz	??_lcd_ini+1,f
  2039  08D2  28CF               	goto	u3547
  2040  08D3                     l2392:	
  2041                           
  2042                           ;Labor5_Master.c: 7:     lcd_com(56);
  2043  08D3  3038               	movlw	56
  2044  08D4  120A  158A  2148  120A  158A  	fcall	_lcd_com
  2045  08D9                     l2394:	
  2046                           
  2047                           ;Labor5_Master.c: 8:     lcd_com(12);
  2048  08D9  300C               	movlw	12
  2049  08DA  120A  158A  2148  120A  158A  	fcall	_lcd_com
  2050  08DF                     l2396:	
  2051                           
  2052                           ;Labor5_Master.c: 9:     lcd_com(1);
  2053  08DF  3001               	movlw	1
  2054  08E0  120A  158A  2148  120A  158A  	fcall	_lcd_com
  2055  08E5                     l2398:	
  2056                           
  2057                           ;Labor5_Master.c: 10:     lcd_com(6);
  2058  08E5  3006               	movlw	6
  2059  08E6  120A  158A  2148  120A  158A  	fcall	_lcd_com
  2060  08EB                     l2400:	
  2061                           
  2062                           ;Labor5_Master.c: 11:     lcd_com(128);
  2063  08EB  3080               	movlw	128
  2064  08EC  120A  158A  2148  120A  158A  	fcall	_lcd_com
  2065  08F1                     l141:	
  2066  08F1  0008               	return
  2067  08F2                     __end_of_lcd_ini:	
  2068                           
  2069                           	psect	text6
  2070  0948                     __ptext6:	
  2071 ;; *************** function _lcd_com *****************
  2072 ;; Defined at:
  2073 ;;		line 21 in file "Labor5_Master.c"
  2074 ;; Parameters:    Size  Location     Type
  2075 ;;  dato            1    wreg     unsigned char 
  2076 ;; Auto vars:     Size  Location     Type
  2077 ;;  dato            1    4[COMMON] unsigned char 
  2078 ;; Return value:  Size  Location     Type
  2079 ;;                  1    wreg      void 
  2080 ;; Registers used:
  2081 ;;		wreg, status,2, status,0, pclath, cstack
  2082 ;; Tracked objects:
  2083 ;;		On entry : 0/0
  2084 ;;		On exit  : 0/0
  2085 ;;		Unchanged: 0/0
  2086 ;; Data sizes:     COMMON   BANK0   BANK1   BANK3   BANK2
  2087 ;;      Params:         0       0       0       0       0
  2088 ;;      Locals:         1       0       0       0       0
  2089 ;;      Temps:          2       0       0       0       0
  2090 ;;      Totals:         3       0       0       0       0
  2091 ;;Total ram usage:        3 bytes
  2092 ;; Hardware stack levels used:    1
  2093 ;; Hardware stack levels required when called:    1
  2094 ;; This function calls:
  2095 ;;		_enable
  2096 ;; This function is called by:
  2097 ;;		_main
  2098 ;;		_lcd_ini
  2099 ;; This function uses a non-reentrant model
  2100 ;;
  2101                           
  2102                           
  2103                           ;psect for function _lcd_com
  2104  0948                     _lcd_com:	
  2105                           
  2106                           ;incstack = 0
  2107                           ; Regs used in _lcd_com: [wreg+status,2+status,0+pclath+cstack]
  2108                           ;lcd_com@dato stored from wreg
  2109  0948  00F4               	movwf	lcd_com@dato
  2110  0949                     l2054:	
  2111                           
  2112                           ;Labor5_Master.c: 22:     PORTD = 0xFF;
  2113  0949  30FF               	movlw	255
  2114  094A  1283               	bcf	3,5	;RP0=0, select bank0
  2115  094B  1303               	bcf	3,6	;RP1=0, select bank0
  2116  094C  0088               	movwf	8	;volatile
  2117                           
  2118                           ;Labor5_Master.c: 23:     PORTD = 0x14;
  2119  094D  3014               	movlw	20
  2120  094E  0088               	movwf	8	;volatile
  2121  094F                     l2056:	
  2122                           
  2123                           ;Labor5_Master.c: 24:     PORTD &= 0x80;
  2124  094F  3080               	movlw	128
  2125  0950  00F2               	movwf	??_lcd_com
  2126  0951  0872               	movf	??_lcd_com,w
  2127  0952  0588               	andwf	8,f	;volatile
  2128  0953                     l2058:	
  2129                           
  2130                           ;Labor5_Master.c: 25:     PORTCbits.RC5 = 0;
  2131  0953  1287               	bcf	7,5	;volatile
  2132  0954                     l2060:	
  2133                           
  2134                           ;Labor5_Master.c: 26:     PORTCbits.RC6 = 1;
  2135  0954  1707               	bsf	7,6	;volatile
  2136  0955                     l2062:	
  2137                           
  2138                           ;Labor5_Master.c: 27:     enable();
  2139  0955  160A  118A  27CA  120A  158A  	fcall	_enable
  2140  095A                     l2064:	
  2141                           
  2142                           ;Labor5_Master.c: 28:     if (PORTD == 0x80){
  2143  095A  3080               	movlw	128
  2144  095B  1283               	bcf	3,5	;RP0=0, select bank0
  2145  095C  1303               	bcf	3,6	;RP1=0, select bank0
  2146  095D  0608               	xorwf	8,w	;volatile
  2147  095E  1D03               	btfss	3,2
  2148  095F  2961               	goto	u2351
  2149  0960  2962               	goto	u2350
  2150  0961                     u2351:	
  2151  0961  2967               	goto	l2068
  2152  0962                     u2350:	
  2153  0962                     l2066:	
  2154                           
  2155                           ;Labor5_Master.c: 29:         enable();
  2156  0962  160A  118A  27CA  120A  158A  	fcall	_enable
  2157  0967                     l2068:	
  2158                           
  2159                           ;Labor5_Master.c: 31:     PORTD = dato;
  2160  0967  0874               	movf	lcd_com@dato,w
  2161  0968  1283               	bcf	3,5	;RP0=0, select bank0
  2162  0969  1303               	bcf	3,6	;RP1=0, select bank0
  2163  096A  0088               	movwf	8	;volatile
  2164  096B                     l2070:	
  2165                           
  2166                           ;Labor5_Master.c: 32:     PORTCbits.RC5 = 0;
  2167  096B  1287               	bcf	7,5	;volatile
  2168  096C                     l2072:	
  2169                           
  2170                           ;Labor5_Master.c: 33:     PORTCbits.RC6 = 0;
  2171  096C  1307               	bcf	7,6	;volatile
  2172  096D                     l2074:	
  2173                           
  2174                           ;Labor5_Master.c: 34:     enable();
  2175  096D  160A  118A  27CA  120A  158A  	fcall	_enable
  2176                           
  2177                           ;Labor5_Master.c: 35:     _delay((unsigned long)((5)*(4000000/4000.0)));
  2178  0972  3007               	movlw	7
  2179  0973  00F3               	movwf	??_lcd_com+1
  2180  0974  307D               	movlw	125
  2181  0975  00F2               	movwf	??_lcd_com
  2182  0976                     u3557:	
  2183  0976  0BF2               	decfsz	??_lcd_com,f
  2184  0977  2976               	goto	u3557
  2185  0978  0BF3               	decfsz	??_lcd_com+1,f
  2186  0979  2976               	goto	u3557
  2187  097A                     l148:	
  2188  097A  0008               	return
  2189  097B                     __end_of_lcd_com:	
  2190                           
  2191                           	psect	text7
  2192  17CA                     __ptext7:	
  2193 ;; *************** function _enable *****************
  2194 ;; Defined at:
  2195 ;;		line 14 in file "Labor5_Master.c"
  2196 ;; Parameters:    Size  Location     Type
  2197 ;;		None
  2198 ;; Auto vars:     Size  Location     Type
  2199 ;;		None
  2200 ;; Return value:  Size  Location     Type
  2201 ;;                  1    wreg      void 
  2202 ;; Registers used:
  2203 ;;		wreg
  2204 ;; Tracked objects:
  2205 ;;		On entry : 0/0
  2206 ;;		On exit  : 0/0
  2207 ;;		Unchanged: 0/0
  2208 ;; Data sizes:     COMMON   BANK0   BANK1   BANK3   BANK2
  2209 ;;      Params:         0       0       0       0       0
  2210 ;;      Locals:         0       0       0       0       0
  2211 ;;      Temps:          2       0       0       0       0
  2212 ;;      Totals:         2       0       0       0       0
  2213 ;;Total ram usage:        2 bytes
  2214 ;; Hardware stack levels used:    1
  2215 ;; This function calls:
  2216 ;;		Nothing
  2217 ;; This function is called by:
  2218 ;;		_lcd_com
  2219 ;;		_lcd_dwr
  2220 ;; This function uses a non-reentrant model
  2221 ;;
  2222                           
  2223                           
  2224                           ;psect for function _enable
  2225  17CA                     _enable:	
  2226  17CA                     l1772:	
  2227                           ;incstack = 0
  2228                           ; Regs used in _enable: [wreg]
  2229                           
  2230                           
  2231                           ;Labor5_Master.c: 15:     PORTCbits.RC7 = 0;
  2232  17CA  1283               	bcf	3,5	;RP0=0, select bank0
  2233  17CB  1303               	bcf	3,6	;RP1=0, select bank0
  2234  17CC  1387               	bcf	7,7	;volatile
  2235  17CD                     l1774:	
  2236                           
  2237                           ;Labor5_Master.c: 16:     _delay((unsigned long)((15)*(4000000/4000.0)));
  2238  17CD  3014               	movlw	20
  2239  17CE  00F1               	movwf	??_enable+1
  2240  17CF  3079               	movlw	121
  2241  17D0  00F0               	movwf	??_enable
  2242  17D1                     u3567:	
  2243  17D1  0BF0               	decfsz	??_enable,f
  2244  17D2  2FD1               	goto	u3567
  2245  17D3  0BF1               	decfsz	??_enable+1,f
  2246  17D4  2FD1               	goto	u3567
  2247  17D5  2FD6               	nop2
  2248  17D6                     l1776:	
  2249                           
  2250                           ;Labor5_Master.c: 17:     PORTCbits.RC7 = 1;
  2251  17D6  1283               	bcf	3,5	;RP0=0, select bank0
  2252  17D7  1303               	bcf	3,6	;RP1=0, select bank0
  2253  17D8  1787               	bsf	7,7	;volatile
  2254  17D9                     l144:	
  2255  17D9  0008               	return
  2256  17DA                     __end_of_enable:	
  2257                           
  2258                           	psect	text8
  2259  0858                     __ptext8:	
  2260 ;; *************** function _itoa *****************
  2261 ;; Defined at:
  2262 ;;		line 4 in file "C:\Program Files (x86)\Microchip\xc8\v2.10\pic\sources\c90\common\itoa.c"
  2263 ;; Parameters:    Size  Location     Type
  2264 ;;  buf             1    wreg     PTR unsigned char 
  2265 ;;		 -> distancia1(16), contador1(8), valana3(8), valana2(8), 
  2266 ;;		 -> valana1(8), 
  2267 ;;  val             2    4[BANK0 ] int 
  2268 ;;  base            2    6[BANK0 ] int 
  2269 ;; Auto vars:     Size  Location     Type
  2270 ;;  buf             1    9[BANK0 ] PTR unsigned char 
  2271 ;;		 -> distancia1(16), contador1(8), valana3(8), valana2(8), 
  2272 ;;		 -> valana1(8), 
  2273 ;;  cp              1    0        PTR unsigned char 
  2274 ;;		 -> distancia1(16), contador1(8), valana3(8), valana2(8), 
  2275 ;;		 -> valana1(8), 
  2276 ;; Return value:  Size  Location     Type
  2277 ;;                  1    wreg      PTR unsigned char 
  2278 ;; Registers used:
  2279 ;;		wreg, fsr0l, fsr0h, status,2, status,0, pclath, cstack
  2280 ;; Tracked objects:
  2281 ;;		On entry : 0/0
  2282 ;;		On exit  : 0/0
  2283 ;;		Unchanged: 0/0
  2284 ;; Data sizes:     COMMON   BANK0   BANK1   BANK3   BANK2
  2285 ;;      Params:         0       4       0       0       0
  2286 ;;      Locals:         0       2       0       0       0
  2287 ;;      Temps:          1       0       0       0       0
  2288 ;;      Totals:         1       6       0       0       0
  2289 ;;Total ram usage:        7 bytes
  2290 ;; Hardware stack levels used:    1
  2291 ;; Hardware stack levels required when called:    2
  2292 ;; This function calls:
  2293 ;;		_utoa
  2294 ;; This function is called by:
  2295 ;;		_main
  2296 ;; This function uses a non-reentrant model
  2297 ;;
  2298                           
  2299                           
  2300                           ;psect for function _itoa
  2301  0858                     _itoa:	
  2302                           
  2303                           ;incstack = 0
  2304                           ; Regs used in _itoa: [wreg-fsr0h+status,2+status,0+pclath+cstack]
  2305                           ;itoa@buf stored from wreg
  2306  0858  1283               	bcf	3,5	;RP0=0, select bank0
  2307  0859  1303               	bcf	3,6	;RP1=0, select bank0
  2308  085A  00A9               	movwf	itoa@buf
  2309  085B                     l2462:	
  2310  085B                     l2464:	
  2311  085B  1FA5               	btfss	itoa@val+1,7
  2312  085C  285E               	goto	u3131
  2313  085D  285F               	goto	u3130
  2314  085E                     u3131:	
  2315  085E  286F               	goto	l2472
  2316  085F                     u3130:	
  2317  085F                     l2466:	
  2318  085F  302D               	movlw	45
  2319  0860  00FD               	movwf	??_itoa
  2320  0861  0829               	movf	itoa@buf,w
  2321  0862  0084               	movwf	4
  2322  0863  087D               	movf	??_itoa,w
  2323  0864  1383               	bcf	3,7	;select IRP bank0
  2324  0865  0080               	movwf	0
  2325  0866                     l2468:	
  2326  0866  3001               	movlw	1
  2327  0867  00FD               	movwf	??_itoa
  2328  0868  087D               	movf	??_itoa,w
  2329  0869  07A9               	addwf	itoa@buf,f
  2330  086A                     l2470:	
  2331  086A  09A4               	comf	itoa@val,f
  2332  086B  09A5               	comf	itoa@val+1,f
  2333  086C  0AA4               	incf	itoa@val,f
  2334  086D  1903               	skipnz
  2335  086E  0AA5               	incf	itoa@val+1,f
  2336  086F                     l2472:	
  2337  086F  0825               	movf	itoa@val+1,w
  2338  0870  00F9               	movwf	utoa@val+1
  2339  0871  0824               	movf	itoa@val,w
  2340  0872  00F8               	movwf	utoa@val
  2341  0873  0827               	movf	itoa@base+1,w
  2342  0874  00FB               	movwf	utoa@base+1
  2343  0875  0826               	movf	itoa@base,w
  2344  0876  00FA               	movwf	utoa@base
  2345  0877  0829               	movf	itoa@buf,w
  2346  0878  120A  158A  225F  120A  158A  	fcall	_utoa
  2347  087D                     l726:	
  2348  087D  0008               	return
  2349  087E                     __end_of_itoa:	
  2350                           
  2351                           	psect	text9
  2352  0A5F                     __ptext9:	
  2353 ;; *************** function _utoa *****************
  2354 ;; Defined at:
  2355 ;;		line 17 in file "C:\Program Files (x86)\Microchip\xc8\v2.10\pic\sources\c90\common\itoa.c"
  2356 ;; Parameters:    Size  Location     Type
  2357 ;;  buf             1    wreg     PTR unsigned char 
  2358 ;;		 -> distancia1(16), contador1(8), valana3(8), valana2(8), 
  2359 ;;		 -> valana1(8), 
  2360 ;;  val             2    8[COMMON] unsigned int 
  2361 ;;  base            2   10[COMMON] int 
  2362 ;; Auto vars:     Size  Location     Type
  2363 ;;  buf             1    3[BANK0 ] PTR unsigned char 
  2364 ;;		 -> distancia1(16), contador1(8), valana3(8), valana2(8), 
  2365 ;;		 -> valana1(8), 
  2366 ;;  v               2    0[BANK0 ] unsigned int 
  2367 ;;  c               1    2[BANK0 ] unsigned char 
  2368 ;; Return value:  Size  Location     Type
  2369 ;;                  1    wreg      PTR unsigned char 
  2370 ;; Registers used:
  2371 ;;		wreg, fsr0l, fsr0h, status,2, status,0, pclath, cstack
  2372 ;; Tracked objects:
  2373 ;;		On entry : 0/0
  2374 ;;		On exit  : 0/0
  2375 ;;		Unchanged: 0/0
  2376 ;; Data sizes:     COMMON   BANK0   BANK1   BANK3   BANK2
  2377 ;;      Params:         4       0       0       0       0
  2378 ;;      Locals:         0       4       0       0       0
  2379 ;;      Temps:          1       0       0       0       0
  2380 ;;      Totals:         5       4       0       0       0
  2381 ;;Total ram usage:        9 bytes
  2382 ;; Hardware stack levels used:    1
  2383 ;; Hardware stack levels required when called:    1
  2384 ;; This function calls:
  2385 ;;		___lwdiv
  2386 ;;		___lwmod
  2387 ;; This function is called by:
  2388 ;;		_itoa
  2389 ;; This function uses a non-reentrant model
  2390 ;;
  2391                           
  2392                           
  2393                           ;psect for function _utoa
  2394  0A5F                     _utoa:	
  2395                           
  2396                           ;incstack = 0
  2397                           ; Regs used in _utoa: [wreg-fsr0h+status,2+status,0+pclath+cstack]
  2398                           ;utoa@buf stored from wreg
  2399  0A5F  1283               	bcf	3,5	;RP0=0, select bank0
  2400  0A60  1303               	bcf	3,6	;RP1=0, select bank0
  2401  0A61  00A3               	movwf	utoa@buf
  2402  0A62                     l2342:	
  2403  0A62  0879               	movf	utoa@val+1,w
  2404  0A63  00A1               	movwf	utoa@v+1
  2405  0A64  0878               	movf	utoa@val,w
  2406  0A65  00A0               	movwf	utoa@v
  2407  0A66                     l2344:	
  2408  0A66  087B               	movf	utoa@base+1,w
  2409  0A67  00F1               	movwf	___lwdiv@divisor+1
  2410  0A68  087A               	movf	utoa@base,w
  2411  0A69  00F0               	movwf	___lwdiv@divisor
  2412  0A6A  0821               	movf	utoa@v+1,w
  2413  0A6B  00F3               	movwf	___lwdiv@dividend+1
  2414  0A6C  0820               	movf	utoa@v,w
  2415  0A6D  00F2               	movwf	___lwdiv@dividend
  2416  0A6E  120A  158A  21B5  120A  158A  	fcall	___lwdiv
  2417  0A73  0871               	movf	?___lwdiv+1,w
  2418  0A74  1283               	bcf	3,5	;RP0=0, select bank0
  2419  0A75  1303               	bcf	3,6	;RP1=0, select bank0
  2420  0A76  00A1               	movwf	utoa@v+1
  2421  0A77  0870               	movf	?___lwdiv,w
  2422  0A78  00A0               	movwf	utoa@v
  2423  0A79                     l2346:	
  2424  0A79  3001               	movlw	1
  2425  0A7A  00FC               	movwf	??_utoa
  2426  0A7B  087C               	movf	??_utoa,w
  2427  0A7C  07A3               	addwf	utoa@buf,f
  2428  0A7D                     l2348:	
  2429  0A7D  0820               	movf	utoa@v,w
  2430  0A7E  0421               	iorwf	utoa@v+1,w
  2431  0A7F  1D03               	btfss	3,2
  2432  0A80  2A82               	goto	u3061
  2433  0A81  2A83               	goto	u3060
  2434  0A82                     u3061:	
  2435  0A82  2A66               	goto	l2344
  2436  0A83                     u3060:	
  2437  0A83                     l2350:	
  2438  0A83  0823               	movf	utoa@buf,w
  2439  0A84  0084               	movwf	4
  2440  0A85  1383               	bcf	3,7	;select IRP bank0
  2441  0A86  0180               	clrf	0
  2442  0A87                     l2352:	
  2443  0A87  3001               	movlw	1
  2444  0A88  02A3               	subwf	utoa@buf,f
  2445  0A89                     l2354:	
  2446  0A89  087B               	movf	utoa@base+1,w
  2447  0A8A  00F1               	movwf	___lwmod@divisor+1
  2448  0A8B  087A               	movf	utoa@base,w
  2449  0A8C  00F0               	movwf	___lwmod@divisor
  2450  0A8D  0879               	movf	utoa@val+1,w
  2451  0A8E  00F3               	movwf	___lwmod@dividend+1
  2452  0A8F  0878               	movf	utoa@val,w
  2453  0A90  00F2               	movwf	___lwmod@dividend
  2454  0A91  120A  158A  217B  120A  158A  	fcall	___lwmod
  2455  0A96  0870               	movf	?___lwmod,w
  2456  0A97  00FC               	movwf	??_utoa
  2457  0A98  087C               	movf	??_utoa,w
  2458  0A99  1283               	bcf	3,5	;RP0=0, select bank0
  2459  0A9A  1303               	bcf	3,6	;RP1=0, select bank0
  2460  0A9B  00A2               	movwf	utoa@c
  2461  0A9C                     l2356:	
  2462  0A9C  087B               	movf	utoa@base+1,w
  2463  0A9D  00F1               	movwf	___lwdiv@divisor+1
  2464  0A9E  087A               	movf	utoa@base,w
  2465  0A9F  00F0               	movwf	___lwdiv@divisor
  2466  0AA0  0879               	movf	utoa@val+1,w
  2467  0AA1  00F3               	movwf	___lwdiv@dividend+1
  2468  0AA2  0878               	movf	utoa@val,w
  2469  0AA3  00F2               	movwf	___lwdiv@dividend
  2470  0AA4  120A  158A  21B5  120A  158A  	fcall	___lwdiv
  2471  0AA9  0871               	movf	?___lwdiv+1,w
  2472  0AAA  00F9               	movwf	utoa@val+1
  2473  0AAB  0870               	movf	?___lwdiv,w
  2474  0AAC  00F8               	movwf	utoa@val
  2475  0AAD                     l2358:	
  2476  0AAD  300A               	movlw	10
  2477  0AAE  1283               	bcf	3,5	;RP0=0, select bank0
  2478  0AAF  1303               	bcf	3,6	;RP1=0, select bank0
  2479  0AB0  0222               	subwf	utoa@c,w
  2480  0AB1  1C03               	skipc
  2481  0AB2  2AB4               	goto	u3071
  2482  0AB3  2AB5               	goto	u3070
  2483  0AB4                     u3071:	
  2484  0AB4  2AB9               	goto	l732
  2485  0AB5                     u3070:	
  2486  0AB5                     l2360:	
  2487  0AB5  3007               	movlw	7
  2488  0AB6  00FC               	movwf	??_utoa
  2489  0AB7  087C               	movf	??_utoa,w
  2490  0AB8  07A2               	addwf	utoa@c,f
  2491  0AB9                     l732:	
  2492  0AB9  3030               	movlw	48
  2493  0ABA  00FC               	movwf	??_utoa
  2494  0ABB  087C               	movf	??_utoa,w
  2495  0ABC  07A2               	addwf	utoa@c,f
  2496  0ABD                     l2362:	
  2497  0ABD  0822               	movf	utoa@c,w
  2498  0ABE  00FC               	movwf	??_utoa
  2499  0ABF  0823               	movf	utoa@buf,w
  2500  0AC0  0084               	movwf	4
  2501  0AC1  087C               	movf	??_utoa,w
  2502  0AC2  1383               	bcf	3,7	;select IRP bank0
  2503  0AC3  0080               	movwf	0
  2504  0AC4                     l2364:	
  2505  0AC4  3001               	movlw	1
  2506  0AC5  02A3               	subwf	utoa@buf,f
  2507  0AC6                     l2366:	
  2508  0AC6  0878               	movf	utoa@val,w
  2509  0AC7  0479               	iorwf	utoa@val+1,w
  2510  0AC8  1D03               	btfss	3,2
  2511  0AC9  2ACB               	goto	u3081
  2512  0ACA  2ACC               	goto	u3080
  2513  0ACB                     u3081:	
  2514  0ACB  2A89               	goto	l2354
  2515  0ACC                     u3080:	
  2516  0ACC                     l2368:	
  2517                           
  2518                           ;	Return value of _utoa is never used
  2519  0ACC  3001               	movlw	1
  2520  0ACD  00FC               	movwf	??_utoa
  2521  0ACE  087C               	movf	??_utoa,w
  2522  0ACF  07A3               	addwf	utoa@buf,f
  2523  0AD0                     l734:	
  2524  0AD0  0008               	return
  2525  0AD1                     __end_of_utoa:	
  2526                           
  2527                           	psect	text10
  2528  097B                     __ptext10:	
  2529 ;; *************** function ___lwmod *****************
  2530 ;; Defined at:
  2531 ;;		line 5 in file "C:\Program Files (x86)\Microchip\xc8\v2.10\pic\sources\c90\common\lwmod.c"
  2532 ;; Parameters:    Size  Location     Type
  2533 ;;  divisor         2    0[COMMON] unsigned int 
  2534 ;;  dividend        2    2[COMMON] unsigned int 
  2535 ;; Auto vars:     Size  Location     Type
  2536 ;;  counter         1    5[COMMON] unsigned char 
  2537 ;; Return value:  Size  Location     Type
  2538 ;;                  2    0[COMMON] unsigned int 
  2539 ;; Registers used:
  2540 ;;		wreg, status,2, status,0
  2541 ;; Tracked objects:
  2542 ;;		On entry : 0/0
  2543 ;;		On exit  : 0/0
  2544 ;;		Unchanged: 0/0
  2545 ;; Data sizes:     COMMON   BANK0   BANK1   BANK3   BANK2
  2546 ;;      Params:         4       0       0       0       0
  2547 ;;      Locals:         1       0       0       0       0
  2548 ;;      Temps:          1       0       0       0       0
  2549 ;;      Totals:         6       0       0       0       0
  2550 ;;Total ram usage:        6 bytes
  2551 ;; Hardware stack levels used:    1
  2552 ;; This function calls:
  2553 ;;		Nothing
  2554 ;; This function is called by:
  2555 ;;		_utoa
  2556 ;; This function uses a non-reentrant model
  2557 ;;
  2558                           
  2559                           
  2560                           ;psect for function ___lwmod
  2561  097B                     ___lwmod:	
  2562  097B                     l1824:	
  2563                           ;incstack = 0
  2564                           ; Regs used in ___lwmod: [wreg+status,2+status,0]
  2565                           
  2566  097B  0870               	movf	___lwmod@divisor,w
  2567  097C  0471               	iorwf	___lwmod@divisor+1,w
  2568  097D  1903               	btfsc	3,2
  2569  097E  2980               	goto	u1801
  2570  097F  2981               	goto	u1800
  2571  0980                     u1801:	
  2572  0980  29B0               	goto	l1842
  2573  0981                     u1800:	
  2574  0981                     l1826:	
  2575  0981  01F5               	clrf	___lwmod@counter
  2576  0982  0AF5               	incf	___lwmod@counter,f
  2577  0983  298F               	goto	l1832
  2578  0984                     l1828:	
  2579  0984  3001               	movlw	1
  2580  0985                     u1815:	
  2581  0985  1003               	clrc
  2582  0986  0DF0               	rlf	___lwmod@divisor,f
  2583  0987  0DF1               	rlf	___lwmod@divisor+1,f
  2584  0988  3EFF               	addlw	-1
  2585  0989  1D03               	skipz
  2586  098A  2985               	goto	u1815
  2587  098B                     l1830:	
  2588  098B  3001               	movlw	1
  2589  098C  00F4               	movwf	??___lwmod
  2590  098D  0874               	movf	??___lwmod,w
  2591  098E  07F5               	addwf	___lwmod@counter,f
  2592  098F                     l1832:	
  2593  098F  1FF1               	btfss	___lwmod@divisor+1,7
  2594  0990  2992               	goto	u1821
  2595  0991  2993               	goto	u1820
  2596  0992                     u1821:	
  2597  0992  2984               	goto	l1828
  2598  0993                     u1820:	
  2599  0993                     l1834:	
  2600  0993  0871               	movf	___lwmod@divisor+1,w
  2601  0994  0273               	subwf	___lwmod@dividend+1,w
  2602  0995  1D03               	skipz
  2603  0996  2999               	goto	u1835
  2604  0997  0870               	movf	___lwmod@divisor,w
  2605  0998  0272               	subwf	___lwmod@dividend,w
  2606  0999                     u1835:	
  2607  0999  1C03               	skipc
  2608  099A  299C               	goto	u1831
  2609  099B  299D               	goto	u1830
  2610  099C                     u1831:	
  2611  099C  29A3               	goto	l1838
  2612  099D                     u1830:	
  2613  099D                     l1836:	
  2614  099D  0870               	movf	___lwmod@divisor,w
  2615  099E  02F2               	subwf	___lwmod@dividend,f
  2616  099F  0871               	movf	___lwmod@divisor+1,w
  2617  09A0  1C03               	skipc
  2618  09A1  03F3               	decf	___lwmod@dividend+1,f
  2619  09A2  02F3               	subwf	___lwmod@dividend+1,f
  2620  09A3                     l1838:	
  2621  09A3  3001               	movlw	1
  2622  09A4                     u1845:	
  2623  09A4  1003               	clrc
  2624  09A5  0CF1               	rrf	___lwmod@divisor+1,f
  2625  09A6  0CF0               	rrf	___lwmod@divisor,f
  2626  09A7  3EFF               	addlw	-1
  2627  09A8  1D03               	skipz
  2628  09A9  29A4               	goto	u1845
  2629  09AA                     l1840:	
  2630  09AA  3001               	movlw	1
  2631  09AB  02F5               	subwf	___lwmod@counter,f
  2632  09AC  1D03               	btfss	3,2
  2633  09AD  29AF               	goto	u1851
  2634  09AE  29B0               	goto	u1850
  2635  09AF                     u1851:	
  2636  09AF  2993               	goto	l1834
  2637  09B0                     u1850:	
  2638  09B0                     l1842:	
  2639  09B0  0873               	movf	___lwmod@dividend+1,w
  2640  09B1  00F1               	movwf	?___lwmod+1
  2641  09B2  0872               	movf	___lwmod@dividend,w
  2642  09B3  00F0               	movwf	?___lwmod
  2643  09B4                     l560:	
  2644  09B4  0008               	return
  2645  09B5                     __end_of___lwmod:	
  2646                           
  2647                           	psect	text11
  2648  09B5                     __ptext11:	
  2649 ;; *************** function ___lwdiv *****************
  2650 ;; Defined at:
  2651 ;;		line 5 in file "C:\Program Files (x86)\Microchip\xc8\v2.10\pic\sources\c90\common\lwdiv.c"
  2652 ;; Parameters:    Size  Location     Type
  2653 ;;  divisor         2    0[COMMON] unsigned int 
  2654 ;;  dividend        2    2[COMMON] unsigned int 
  2655 ;; Auto vars:     Size  Location     Type
  2656 ;;  quotient        2    5[COMMON] unsigned int 
  2657 ;;  counter         1    7[COMMON] unsigned char 
  2658 ;; Return value:  Size  Location     Type
  2659 ;;                  2    0[COMMON] unsigned int 
  2660 ;; Registers used:
  2661 ;;		wreg, status,2, status,0
  2662 ;; Tracked objects:
  2663 ;;		On entry : 0/0
  2664 ;;		On exit  : 0/0
  2665 ;;		Unchanged: 0/0
  2666 ;; Data sizes:     COMMON   BANK0   BANK1   BANK3   BANK2
  2667 ;;      Params:         4       0       0       0       0
  2668 ;;      Locals:         3       0       0       0       0
  2669 ;;      Temps:          1       0       0       0       0
  2670 ;;      Totals:         8       0       0       0       0
  2671 ;;Total ram usage:        8 bytes
  2672 ;; Hardware stack levels used:    1
  2673 ;; This function calls:
  2674 ;;		Nothing
  2675 ;; This function is called by:
  2676 ;;		_utoa
  2677 ;; This function uses a non-reentrant model
  2678 ;;
  2679                           
  2680                           
  2681                           ;psect for function ___lwdiv
  2682  09B5                     ___lwdiv:	
  2683  09B5                     l1798:	
  2684                           ;incstack = 0
  2685                           ; Regs used in ___lwdiv: [wreg+status,2+status,0]
  2686                           
  2687  09B5  01F5               	clrf	___lwdiv@quotient
  2688  09B6  01F6               	clrf	___lwdiv@quotient+1
  2689  09B7                     l1800:	
  2690  09B7  0870               	movf	___lwdiv@divisor,w
  2691  09B8  0471               	iorwf	___lwdiv@divisor+1,w
  2692  09B9  1903               	btfsc	3,2
  2693  09BA  29BC               	goto	u1731
  2694  09BB  29BD               	goto	u1730
  2695  09BC                     u1731:	
  2696  09BC  29F4               	goto	l1820
  2697  09BD                     u1730:	
  2698  09BD                     l1802:	
  2699  09BD  01F7               	clrf	___lwdiv@counter
  2700  09BE  0AF7               	incf	___lwdiv@counter,f
  2701  09BF  29CB               	goto	l1808
  2702  09C0                     l1804:	
  2703  09C0  3001               	movlw	1
  2704  09C1                     u1745:	
  2705  09C1  1003               	clrc
  2706  09C2  0DF0               	rlf	___lwdiv@divisor,f
  2707  09C3  0DF1               	rlf	___lwdiv@divisor+1,f
  2708  09C4  3EFF               	addlw	-1
  2709  09C5  1D03               	skipz
  2710  09C6  29C1               	goto	u1745
  2711  09C7                     l1806:	
  2712  09C7  3001               	movlw	1
  2713  09C8  00F4               	movwf	??___lwdiv
  2714  09C9  0874               	movf	??___lwdiv,w
  2715  09CA  07F7               	addwf	___lwdiv@counter,f
  2716  09CB                     l1808:	
  2717  09CB  1FF1               	btfss	___lwdiv@divisor+1,7
  2718  09CC  29CE               	goto	u1751
  2719  09CD  29CF               	goto	u1750
  2720  09CE                     u1751:	
  2721  09CE  29C0               	goto	l1804
  2722  09CF                     u1750:	
  2723  09CF                     l1810:	
  2724  09CF  3001               	movlw	1
  2725  09D0                     u1765:	
  2726  09D0  1003               	clrc
  2727  09D1  0DF5               	rlf	___lwdiv@quotient,f
  2728  09D2  0DF6               	rlf	___lwdiv@quotient+1,f
  2729  09D3  3EFF               	addlw	-1
  2730  09D4  1D03               	skipz
  2731  09D5  29D0               	goto	u1765
  2732  09D6  0871               	movf	___lwdiv@divisor+1,w
  2733  09D7  0273               	subwf	___lwdiv@dividend+1,w
  2734  09D8  1D03               	skipz
  2735  09D9  29DC               	goto	u1775
  2736  09DA  0870               	movf	___lwdiv@divisor,w
  2737  09DB  0272               	subwf	___lwdiv@dividend,w
  2738  09DC                     u1775:	
  2739  09DC  1C03               	skipc
  2740  09DD  29DF               	goto	u1771
  2741  09DE  29E0               	goto	u1770
  2742  09DF                     u1771:	
  2743  09DF  29E7               	goto	l1816
  2744  09E0                     u1770:	
  2745  09E0                     l1812:	
  2746  09E0  0870               	movf	___lwdiv@divisor,w
  2747  09E1  02F2               	subwf	___lwdiv@dividend,f
  2748  09E2  0871               	movf	___lwdiv@divisor+1,w
  2749  09E3  1C03               	skipc
  2750  09E4  03F3               	decf	___lwdiv@dividend+1,f
  2751  09E5  02F3               	subwf	___lwdiv@dividend+1,f
  2752  09E6                     l1814:	
  2753  09E6  1475               	bsf	___lwdiv@quotient,0
  2754  09E7                     l1816:	
  2755  09E7  3001               	movlw	1
  2756  09E8                     u1785:	
  2757  09E8  1003               	clrc
  2758  09E9  0CF1               	rrf	___lwdiv@divisor+1,f
  2759  09EA  0CF0               	rrf	___lwdiv@divisor,f
  2760  09EB  3EFF               	addlw	-1
  2761  09EC  1D03               	skipz
  2762  09ED  29E8               	goto	u1785
  2763  09EE                     l1818:	
  2764  09EE  3001               	movlw	1
  2765  09EF  02F7               	subwf	___lwdiv@counter,f
  2766  09F0  1D03               	btfss	3,2
  2767  09F1  29F3               	goto	u1791
  2768  09F2  29F4               	goto	u1790
  2769  09F3                     u1791:	
  2770  09F3  29CF               	goto	l1810
  2771  09F4                     u1790:	
  2772  09F4                     l1820:	
  2773  09F4  0876               	movf	___lwdiv@quotient+1,w
  2774  09F5  00F1               	movwf	?___lwdiv+1
  2775  09F6  0875               	movf	___lwdiv@quotient,w
  2776  09F7  00F0               	movwf	?___lwdiv
  2777  09F8                     l550:	
  2778  09F8  0008               	return
  2779  09F9                     __end_of___lwdiv:	
  2780                           
  2781                           	psect	text12
  2782  00B8                     __ptext12:	
  2783 ;; *************** function _float2int *****************
  2784 ;; Defined at:
  2785 ;;		line 69 in file "Labor5_Master.c"
  2786 ;; Parameters:    Size  Location     Type
  2787 ;;  valor           4   53[BANK0 ] float 
  2788 ;; Auto vars:     Size  Location     Type
  2789 ;;		None
  2790 ;; Return value:  Size  Location     Type
  2791 ;;                  1    wreg      void 
  2792 ;; Registers used:
  2793 ;;		wreg, status,2, status,0, btemp+1, pclath, cstack
  2794 ;; Tracked objects:
  2795 ;;		On entry : 0/0
  2796 ;;		On exit  : 0/0
  2797 ;;		Unchanged: 0/0
  2798 ;; Data sizes:     COMMON   BANK0   BANK1   BANK3   BANK2
  2799 ;;      Params:         0       4       0       0       0
  2800 ;;      Locals:         0       4       0       0       0
  2801 ;;      Temps:          0       0       0       0       0
  2802 ;;      Totals:         0       8       0       0       0
  2803 ;;Total ram usage:        8 bytes
  2804 ;; Hardware stack levels used:    1
  2805 ;; Hardware stack levels required when called:    2
  2806 ;; This function calls:
  2807 ;;		___flmul
  2808 ;;		___flsub
  2809 ;;		___fltol
  2810 ;;		___xxtofl
  2811 ;; This function is called by:
  2812 ;;		_main
  2813 ;; This function uses a non-reentrant model
  2814 ;;
  2815                           
  2816                           
  2817                           ;psect for function _float2int
  2818  00B8                     _float2int:	
  2819  00B8                     l2452:	
  2820                           ;incstack = 0
  2821                           ; Regs used in _float2int: [wreg+status,2+status,0+btemp+1+pclath+cstack]
  2822                           
  2823                           
  2824                           ;Labor5_Master.c: 71:     valanapot1 = valor;
  2825  00B8  1283               	bcf	3,5	;RP0=0, select bank0
  2826  00B9  1303               	bcf	3,6	;RP1=0, select bank0
  2827  00BA  0858               	movf	float2int@valor+3,w
  2828  00BB  00CD               	movwf	___fltol@f1+3
  2829  00BC  0857               	movf	float2int@valor+2,w
  2830  00BD  00CC               	movwf	___fltol@f1+2
  2831  00BE  0856               	movf	float2int@valor+1,w
  2832  00BF  00CB               	movwf	___fltol@f1+1
  2833  00C0  0855               	movf	float2int@valor,w
  2834  00C1  00CA               	movwf	___fltol@f1
  2835  00C2  120A  118A  203C  120A  118A  	fcall	___fltol
  2836  00C7  1283               	bcf	3,5	;RP0=0, select bank0
  2837  00C8  1303               	bcf	3,6	;RP1=0, select bank0
  2838  00C9  084B               	movf	?___fltol+1,w
  2839  00CA  00EB               	movwf	_valanapot1+1
  2840  00CB  084A               	movf	?___fltol,w
  2841  00CC  00EA               	movwf	_valanapot1
  2842  00CD                     l2454:	
  2843                           
  2844                           ;Labor5_Master.c: 72:     valanapot2 = (valor-valanapot1)*10;
  2845  00CD  0858               	movf	float2int@valor+3,w
  2846  00CE  00AF               	movwf	___flsub@b+3
  2847  00CF  0857               	movf	float2int@valor+2,w
  2848  00D0  00AE               	movwf	___flsub@b+2
  2849  00D1  0856               	movf	float2int@valor+1,w
  2850  00D2  00AD               	movwf	___flsub@b+1
  2851  00D3  0855               	movf	float2int@valor,w
  2852  00D4  00AC               	movwf	___flsub@b
  2853  00D5  086A               	movf	_valanapot1,w
  2854  00D6  00F0               	movwf	___xxtofl@val
  2855  00D7  086B               	movf	_valanapot1+1,w
  2856  00D8  00F1               	movwf	___xxtofl@val+1
  2857  00D9  3000               	movlw	0
  2858  00DA  1BF1               	btfsc	___xxtofl@val+1,7
  2859  00DB  30FF               	movlw	255
  2860  00DC  00F2               	movwf	___xxtofl@val+2
  2861  00DD  00F3               	movwf	___xxtofl@val+3
  2862  00DE  3001               	movlw	1
  2863  00DF  120A  158A  22D1  120A  118A  	fcall	___xxtofl
  2864  00E4  0873               	movf	?___xxtofl+3,w
  2865  00E5  1283               	bcf	3,5	;RP0=0, select bank0
  2866  00E6  1303               	bcf	3,6	;RP1=0, select bank0
  2867  00E7  00AB               	movwf	___flsub@a+3
  2868  00E8  0872               	movf	?___xxtofl+2,w
  2869  00E9  00AA               	movwf	___flsub@a+2
  2870  00EA  0871               	movf	?___xxtofl+1,w
  2871  00EB  00A9               	movwf	___flsub@a+1
  2872  00EC  0870               	movf	?___xxtofl,w
  2873  00ED  00A8               	movwf	___flsub@a
  2874  00EE  120A  158A  2034  120A  118A  	fcall	___flsub
  2875  00F3  1283               	bcf	3,5	;RP0=0, select bank0
  2876  00F4  1303               	bcf	3,6	;RP1=0, select bank0
  2877  00F5  082B               	movf	?___flsub+3,w
  2878  00F6  00B7               	movwf	___flmul@a+3
  2879  00F7  082A               	movf	?___flsub+2,w
  2880  00F8  00B6               	movwf	___flmul@a+2
  2881  00F9  0829               	movf	?___flsub+1,w
  2882  00FA  00B5               	movwf	___flmul@a+1
  2883  00FB  0828               	movf	?___flsub,w
  2884  00FC  00B4               	movwf	___flmul@a
  2885  00FD  3041               	movlw	65
  2886  00FE  00B3               	movwf	___flmul@b+3
  2887  00FF  3020               	movlw	32
  2888  0100  00B2               	movwf	___flmul@b+2
  2889  0101  3000               	movlw	0
  2890  0102  00B1               	movwf	___flmul@b+1
  2891  0103  3000               	movlw	0
  2892  0104  00B0               	movwf	___flmul@b
  2893  0105  120A  118A  2489  120A  118A  	fcall	___flmul
  2894  010A  1283               	bcf	3,5	;RP0=0, select bank0
  2895  010B  1303               	bcf	3,6	;RP1=0, select bank0
  2896  010C  0833               	movf	?___flmul+3,w
  2897  010D  00CD               	movwf	___fltol@f1+3
  2898  010E  0832               	movf	?___flmul+2,w
  2899  010F  00CC               	movwf	___fltol@f1+2
  2900  0110  0831               	movf	?___flmul+1,w
  2901  0111  00CB               	movwf	___fltol@f1+1
  2902  0112  0830               	movf	?___flmul,w
  2903  0113  00CA               	movwf	___fltol@f1
  2904  0114  120A  118A  203C  120A  118A  	fcall	___fltol
  2905  0119  1283               	bcf	3,5	;RP0=0, select bank0
  2906  011A  1303               	bcf	3,6	;RP1=0, select bank0
  2907  011B  084B               	movf	?___fltol+1,w
  2908  011C  00E9               	movwf	_valanapot2+1
  2909  011D  084A               	movf	?___fltol,w
  2910  011E  00E8               	movwf	_valanapot2
  2911  011F                     l2456:	
  2912                           
  2913                           ;Labor5_Master.c: 73:     valanapot3 = (((valor-valanapot1) *10)-valanapot2) *10;
  2914  011F  0858               	movf	float2int@valor+3,w
  2915  0120  00AF               	movwf	___flsub@b+3
  2916  0121  0857               	movf	float2int@valor+2,w
  2917  0122  00AE               	movwf	___flsub@b+2
  2918  0123  0856               	movf	float2int@valor+1,w
  2919  0124  00AD               	movwf	___flsub@b+1
  2920  0125  0855               	movf	float2int@valor,w
  2921  0126  00AC               	movwf	___flsub@b
  2922  0127  086A               	movf	_valanapot1,w
  2923  0128  00F0               	movwf	___xxtofl@val
  2924  0129  086B               	movf	_valanapot1+1,w
  2925  012A  00F1               	movwf	___xxtofl@val+1
  2926  012B  3000               	movlw	0
  2927  012C  1BF1               	btfsc	___xxtofl@val+1,7
  2928  012D  30FF               	movlw	255
  2929  012E  00F2               	movwf	___xxtofl@val+2
  2930  012F  00F3               	movwf	___xxtofl@val+3
  2931  0130  3001               	movlw	1
  2932  0131  120A  158A  22D1  120A  118A  	fcall	___xxtofl
  2933  0136  0873               	movf	?___xxtofl+3,w
  2934  0137  1283               	bcf	3,5	;RP0=0, select bank0
  2935  0138  1303               	bcf	3,6	;RP1=0, select bank0
  2936  0139  00AB               	movwf	___flsub@a+3
  2937  013A  0872               	movf	?___xxtofl+2,w
  2938  013B  00AA               	movwf	___flsub@a+2
  2939  013C  0871               	movf	?___xxtofl+1,w
  2940  013D  00A9               	movwf	___flsub@a+1
  2941  013E  0870               	movf	?___xxtofl,w
  2942  013F  00A8               	movwf	___flsub@a
  2943  0140  120A  158A  2034  120A  118A  	fcall	___flsub
  2944  0145  1283               	bcf	3,5	;RP0=0, select bank0
  2945  0146  1303               	bcf	3,6	;RP1=0, select bank0
  2946  0147  082B               	movf	?___flsub+3,w
  2947  0148  00B7               	movwf	___flmul@a+3
  2948  0149  082A               	movf	?___flsub+2,w
  2949  014A  00B6               	movwf	___flmul@a+2
  2950  014B  0829               	movf	?___flsub+1,w
  2951  014C  00B5               	movwf	___flmul@a+1
  2952  014D  0828               	movf	?___flsub,w
  2953  014E  00B4               	movwf	___flmul@a
  2954  014F  3041               	movlw	65
  2955  0150  00B3               	movwf	___flmul@b+3
  2956  0151  3020               	movlw	32
  2957  0152  00B2               	movwf	___flmul@b+2
  2958  0153  3000               	movlw	0
  2959  0154  00B1               	movwf	___flmul@b+1
  2960  0155  3000               	movlw	0
  2961  0156  00B0               	movwf	___flmul@b
  2962  0157  120A  118A  2489  120A  118A  	fcall	___flmul
  2963  015C  1283               	bcf	3,5	;RP0=0, select bank0
  2964  015D  1303               	bcf	3,6	;RP1=0, select bank0
  2965  015E  0833               	movf	?___flmul+3,w
  2966  015F  00DC               	movwf	_float2int$883+3
  2967  0160  0832               	movf	?___flmul+2,w
  2968  0161  00DB               	movwf	_float2int$883+2
  2969  0162  0831               	movf	?___flmul+1,w
  2970  0163  00DA               	movwf	_float2int$883+1
  2971  0164  0830               	movf	?___flmul,w
  2972  0165  00D9               	movwf	_float2int$883
  2973  0166                     l2458:	
  2974                           
  2975                           ;Labor5_Master.c: 73:     valanapot3 = (((valor-valanapot1) *10)-valanapot2) *10;
  2976  0166  085C               	movf	_float2int$883+3,w
  2977  0167  00AF               	movwf	___flsub@b+3
  2978  0168  085B               	movf	_float2int$883+2,w
  2979  0169  00AE               	movwf	___flsub@b+2
  2980  016A  085A               	movf	_float2int$883+1,w
  2981  016B  00AD               	movwf	___flsub@b+1
  2982  016C  0859               	movf	_float2int$883,w
  2983  016D  00AC               	movwf	___flsub@b
  2984  016E  0868               	movf	_valanapot2,w
  2985  016F  00F0               	movwf	___xxtofl@val
  2986  0170  0869               	movf	_valanapot2+1,w
  2987  0171  00F1               	movwf	___xxtofl@val+1
  2988  0172  3000               	movlw	0
  2989  0173  1BF1               	btfsc	___xxtofl@val+1,7
  2990  0174  30FF               	movlw	255
  2991  0175  00F2               	movwf	___xxtofl@val+2
  2992  0176  00F3               	movwf	___xxtofl@val+3
  2993  0177  3001               	movlw	1
  2994  0178  120A  158A  22D1  120A  118A  	fcall	___xxtofl
  2995  017D  0873               	movf	?___xxtofl+3,w
  2996  017E  1283               	bcf	3,5	;RP0=0, select bank0
  2997  017F  1303               	bcf	3,6	;RP1=0, select bank0
  2998  0180  00AB               	movwf	___flsub@a+3
  2999  0181  0872               	movf	?___xxtofl+2,w
  3000  0182  00AA               	movwf	___flsub@a+2
  3001  0183  0871               	movf	?___xxtofl+1,w
  3002  0184  00A9               	movwf	___flsub@a+1
  3003  0185  0870               	movf	?___xxtofl,w
  3004  0186  00A8               	movwf	___flsub@a
  3005  0187  120A  158A  2034  120A  118A  	fcall	___flsub
  3006  018C  1283               	bcf	3,5	;RP0=0, select bank0
  3007  018D  1303               	bcf	3,6	;RP1=0, select bank0
  3008  018E  082B               	movf	?___flsub+3,w
  3009  018F  00B7               	movwf	___flmul@a+3
  3010  0190  082A               	movf	?___flsub+2,w
  3011  0191  00B6               	movwf	___flmul@a+2
  3012  0192  0829               	movf	?___flsub+1,w
  3013  0193  00B5               	movwf	___flmul@a+1
  3014  0194  0828               	movf	?___flsub,w
  3015  0195  00B4               	movwf	___flmul@a
  3016  0196  3041               	movlw	65
  3017  0197  00B3               	movwf	___flmul@b+3
  3018  0198  3020               	movlw	32
  3019  0199  00B2               	movwf	___flmul@b+2
  3020  019A  3000               	movlw	0
  3021  019B  00B1               	movwf	___flmul@b+1
  3022  019C  3000               	movlw	0
  3023  019D  00B0               	movwf	___flmul@b
  3024  019E  120A  118A  2489  120A  118A  	fcall	___flmul
  3025  01A3  1283               	bcf	3,5	;RP0=0, select bank0
  3026  01A4  1303               	bcf	3,6	;RP1=0, select bank0
  3027  01A5  0833               	movf	?___flmul+3,w
  3028  01A6  00CD               	movwf	___fltol@f1+3
  3029  01A7  0832               	movf	?___flmul+2,w
  3030  01A8  00CC               	movwf	___fltol@f1+2
  3031  01A9  0831               	movf	?___flmul+1,w
  3032  01AA  00CB               	movwf	___fltol@f1+1
  3033  01AB  0830               	movf	?___flmul,w
  3034  01AC  00CA               	movwf	___fltol@f1
  3035  01AD  120A  118A  203C  120A  118A  	fcall	___fltol
  3036  01B2  1283               	bcf	3,5	;RP0=0, select bank0
  3037  01B3  1303               	bcf	3,6	;RP1=0, select bank0
  3038  01B4  084B               	movf	?___fltol+1,w
  3039  01B5  1683               	bsf	3,5	;RP0=1, select bank1
  3040  01B6  1303               	bcf	3,6	;RP1=0, select bank1
  3041  01B7  00A9               	movwf	(_valanapot3+1)^(0+128)
  3042  01B8  1283               	bcf	3,5	;RP0=0, select bank0
  3043  01B9  1303               	bcf	3,6	;RP1=0, select bank0
  3044  01BA  084A               	movf	?___fltol,w
  3045  01BB  1683               	bsf	3,5	;RP0=1, select bank1
  3046  01BC  1303               	bcf	3,6	;RP1=0, select bank1
  3047  01BD  00A8               	movwf	_valanapot3^(0+128)
  3048  01BE                     l165:	
  3049  01BE  0008               	return
  3050  01BF                     __end_of_float2int:	
  3051                           
  3052                           	psect	text13
  3053  0AD1                     __ptext13:	
  3054 ;; *************** function ___xxtofl *****************
  3055 ;; Defined at:
  3056 ;;		line 10 in file "C:\Program Files (x86)\Microchip\xc8\v2.10\pic\sources\c90\common\xxtofl.c"
  3057 ;; Parameters:    Size  Location     Type
  3058 ;;  sign            1    wreg     unsigned char 
  3059 ;;  val             4    0[COMMON] long 
  3060 ;; Auto vars:     Size  Location     Type
  3061 ;;  sign            1    8[COMMON] unsigned char 
  3062 ;;  arg             4   10[COMMON] unsigned long 
  3063 ;;  exp             1    9[COMMON] unsigned char 
  3064 ;; Return value:  Size  Location     Type
  3065 ;;                  4    0[COMMON] unsigned char 
  3066 ;; Registers used:
  3067 ;;		wreg, status,2, status,0
  3068 ;; Tracked objects:
  3069 ;;		On entry : 0/0
  3070 ;;		On exit  : 0/0
  3071 ;;		Unchanged: 0/0
  3072 ;; Data sizes:     COMMON   BANK0   BANK1   BANK3   BANK2
  3073 ;;      Params:         4       0       0       0       0
  3074 ;;      Locals:         6       0       0       0       0
  3075 ;;      Temps:          4       0       0       0       0
  3076 ;;      Totals:        14       0       0       0       0
  3077 ;;Total ram usage:       14 bytes
  3078 ;; Hardware stack levels used:    1
  3079 ;; This function calls:
  3080 ;;		Nothing
  3081 ;; This function is called by:
  3082 ;;		_main
  3083 ;;		_float2int
  3084 ;; This function uses a non-reentrant model
  3085 ;;
  3086                           
  3087                           
  3088                           ;psect for function ___xxtofl
  3089  0AD1                     ___xxtofl:	
  3090                           
  3091                           ;incstack = 0
  3092                           ; Regs used in ___xxtofl: [wreg+status,2+status,0]
  3093                           ;___xxtofl@sign stored from wreg
  3094  0AD1  00F8               	movwf	___xxtofl@sign
  3095  0AD2                     l2298:	
  3096  0AD2  0878               	movf	___xxtofl@sign,w
  3097  0AD3  1903               	btfsc	3,2
  3098  0AD4  2AD6               	goto	u2921
  3099  0AD5  2AD7               	goto	u2920
  3100  0AD6                     u2921:	
  3101  0AD6  2AEB               	goto	l2304
  3102  0AD7                     u2920:	
  3103  0AD7                     l2300:	
  3104  0AD7  1FF3               	btfss	___xxtofl@val+3,7
  3105  0AD8  2ADA               	goto	u2931
  3106  0AD9  2ADB               	goto	u2930
  3107  0ADA                     u2931:	
  3108  0ADA  2AEB               	goto	l2304
  3109  0ADB                     u2930:	
  3110  0ADB                     l2302:	
  3111  0ADB  0970               	comf	___xxtofl@val,w
  3112  0ADC  00FA               	movwf	___xxtofl@arg
  3113  0ADD  0971               	comf	___xxtofl@val+1,w
  3114  0ADE  00FB               	movwf	___xxtofl@arg+1
  3115  0ADF  0972               	comf	___xxtofl@val+2,w
  3116  0AE0  00FC               	movwf	___xxtofl@arg+2
  3117  0AE1  0973               	comf	___xxtofl@val+3,w
  3118  0AE2  00FD               	movwf	___xxtofl@arg+3
  3119  0AE3  0AFA               	incf	___xxtofl@arg,f
  3120  0AE4  1903               	skipnz
  3121  0AE5  0AFB               	incf	___xxtofl@arg+1,f
  3122  0AE6  1903               	skipnz
  3123  0AE7  0AFC               	incf	___xxtofl@arg+2,f
  3124  0AE8  1903               	skipnz
  3125  0AE9  0AFD               	incf	___xxtofl@arg+3,f
  3126  0AEA  2AF3               	goto	l705
  3127  0AEB                     l2304:	
  3128  0AEB  0873               	movf	___xxtofl@val+3,w
  3129  0AEC  00FD               	movwf	___xxtofl@arg+3
  3130  0AED  0872               	movf	___xxtofl@val+2,w
  3131  0AEE  00FC               	movwf	___xxtofl@arg+2
  3132  0AEF  0871               	movf	___xxtofl@val+1,w
  3133  0AF0  00FB               	movwf	___xxtofl@arg+1
  3134  0AF1  0870               	movf	___xxtofl@val,w
  3135  0AF2  00FA               	movwf	___xxtofl@arg
  3136  0AF3                     l705:	
  3137  0AF3  0873               	movf	___xxtofl@val+3,w
  3138  0AF4  0472               	iorwf	___xxtofl@val+2,w
  3139  0AF5  0471               	iorwf	___xxtofl@val+1,w
  3140  0AF6  0470               	iorwf	___xxtofl@val,w
  3141  0AF7  1D03               	skipz
  3142  0AF8  2AFA               	goto	u2941
  3143  0AF9  2AFB               	goto	u2940
  3144  0AFA                     u2941:	
  3145  0AFA  2B04               	goto	l2310
  3146  0AFB                     u2940:	
  3147  0AFB                     l2306:	
  3148  0AFB  3000               	movlw	0
  3149  0AFC  00F3               	movwf	?___xxtofl+3
  3150  0AFD  3000               	movlw	0
  3151  0AFE  00F2               	movwf	?___xxtofl+2
  3152  0AFF  3000               	movlw	0
  3153  0B00  00F1               	movwf	?___xxtofl+1
  3154  0B01  3000               	movlw	0
  3155  0B02  00F0               	movwf	?___xxtofl
  3156  0B03  2B8A               	goto	l707
  3157  0B04                     l2310:	
  3158  0B04  3096               	movlw	150
  3159  0B05  00F4               	movwf	??___xxtofl
  3160  0B06  0874               	movf	??___xxtofl,w
  3161  0B07  00F9               	movwf	___xxtofl@exp
  3162  0B08  2B16               	goto	l2314
  3163  0B09                     l2312:	
  3164  0B09  3001               	movlw	1
  3165  0B0A  00F4               	movwf	??___xxtofl
  3166  0B0B  0874               	movf	??___xxtofl,w
  3167  0B0C  07F9               	addwf	___xxtofl@exp,f
  3168  0B0D  3001               	movlw	1
  3169  0B0E                     u2955:	
  3170  0B0E  1003               	clrc
  3171  0B0F  0CFD               	rrf	___xxtofl@arg+3,f
  3172  0B10  0CFC               	rrf	___xxtofl@arg+2,f
  3173  0B11  0CFB               	rrf	___xxtofl@arg+1,f
  3174  0B12  0CFA               	rrf	___xxtofl@arg,f
  3175  0B13  3EFF               	addlw	-1
  3176  0B14  1D03               	skipz
  3177  0B15  2B0E               	goto	u2955
  3178  0B16                     l2314:	
  3179  0B16  30FE               	movlw	254
  3180  0B17  057D               	andwf	___xxtofl@arg+3,w
  3181  0B18  1D03               	btfss	3,2
  3182  0B19  2B1B               	goto	u2961
  3183  0B1A  2B1C               	goto	u2960
  3184  0B1B                     u2961:	
  3185  0B1B  2B09               	goto	l2312
  3186  0B1C                     u2960:	
  3187  0B1C  2B38               	goto	l711
  3188  0B1D                     l2316:	
  3189  0B1D  3001               	movlw	1
  3190  0B1E  00F4               	movwf	??___xxtofl
  3191  0B1F  0874               	movf	??___xxtofl,w
  3192  0B20  07F9               	addwf	___xxtofl@exp,f
  3193  0B21                     l2318:	
  3194  0B21  3001               	movlw	1
  3195  0B22  07FA               	addwf	___xxtofl@arg,f
  3196  0B23  3000               	movlw	0
  3197  0B24  1803               	skipnc
  3198  0B25  3001               	movlw	1
  3199  0B26  07FB               	addwf	___xxtofl@arg+1,f
  3200  0B27  3000               	movlw	0
  3201  0B28  1803               	skipnc
  3202  0B29  3001               	movlw	1
  3203  0B2A  07FC               	addwf	___xxtofl@arg+2,f
  3204  0B2B  3000               	movlw	0
  3205  0B2C  1803               	skipnc
  3206  0B2D  3001               	movlw	1
  3207  0B2E  07FD               	addwf	___xxtofl@arg+3,f
  3208  0B2F                     l2320:	
  3209  0B2F  3001               	movlw	1
  3210  0B30                     u2975:	
  3211  0B30  1003               	clrc
  3212  0B31  0CFD               	rrf	___xxtofl@arg+3,f
  3213  0B32  0CFC               	rrf	___xxtofl@arg+2,f
  3214  0B33  0CFB               	rrf	___xxtofl@arg+1,f
  3215  0B34  0CFA               	rrf	___xxtofl@arg,f
  3216  0B35  3EFF               	addlw	-1
  3217  0B36  1D03               	skipz
  3218  0B37  2B30               	goto	u2975
  3219  0B38                     l711:	
  3220  0B38  30FF               	movlw	255
  3221  0B39  057D               	andwf	___xxtofl@arg+3,w
  3222  0B3A  1D03               	btfss	3,2
  3223  0B3B  2B3D               	goto	u2981
  3224  0B3C  2B3E               	goto	u2980
  3225  0B3D                     u2981:	
  3226  0B3D  2B1D               	goto	l2316
  3227  0B3E                     u2980:	
  3228  0B3E  2B4A               	goto	l2324
  3229  0B3F                     l2322:	
  3230  0B3F  3001               	movlw	1
  3231  0B40  02F9               	subwf	___xxtofl@exp,f
  3232  0B41  3001               	movlw	1
  3233  0B42  00F4               	movwf	??___xxtofl
  3234  0B43                     u2995:	
  3235  0B43  1003               	clrc
  3236  0B44  0DFA               	rlf	___xxtofl@arg,f
  3237  0B45  0DFB               	rlf	___xxtofl@arg+1,f
  3238  0B46  0DFC               	rlf	___xxtofl@arg+2,f
  3239  0B47  0DFD               	rlf	___xxtofl@arg+3,f
  3240  0B48  0BF4               	decfsz	??___xxtofl,f
  3241  0B49  2B43               	goto	u2995
  3242  0B4A                     l2324:	
  3243  0B4A  1BFC               	btfsc	___xxtofl@arg+2,7
  3244  0B4B  2B4D               	goto	u3001
  3245  0B4C  2B4E               	goto	u3000
  3246  0B4D                     u3001:	
  3247  0B4D  2B54               	goto	l718
  3248  0B4E                     u3000:	
  3249  0B4E                     l2326:	
  3250  0B4E  3002               	movlw	2
  3251  0B4F  0279               	subwf	___xxtofl@exp,w
  3252  0B50  1803               	skipnc
  3253  0B51  2B53               	goto	u3011
  3254  0B52  2B54               	goto	u3010
  3255  0B53                     u3011:	
  3256  0B53  2B3F               	goto	l2322
  3257  0B54                     u3010:	
  3258  0B54                     l718:	
  3259  0B54  1879               	btfsc	___xxtofl@exp,0
  3260  0B55  2B57               	goto	u3021
  3261  0B56  2B58               	goto	u3020
  3262  0B57                     u3021:	
  3263  0B57  2B60               	goto	l719
  3264  0B58                     u3020:	
  3265  0B58                     l2328:	
  3266  0B58  30FF               	movlw	255
  3267  0B59  05FA               	andwf	___xxtofl@arg,f
  3268  0B5A  30FF               	movlw	255
  3269  0B5B  05FB               	andwf	___xxtofl@arg+1,f
  3270  0B5C  307F               	movlw	127
  3271  0B5D  05FC               	andwf	___xxtofl@arg+2,f
  3272  0B5E  30FF               	movlw	255
  3273  0B5F  05FD               	andwf	___xxtofl@arg+3,f
  3274  0B60                     l719:	
  3275  0B60  1003               	clrc
  3276  0B61  0CF9               	rrf	___xxtofl@exp,f
  3277  0B62                     l2330:	
  3278  0B62  0879               	movf	___xxtofl@exp,w
  3279  0B63  00F4               	movwf	??___xxtofl
  3280  0B64  01F5               	clrf	??___xxtofl+1
  3281  0B65  01F6               	clrf	??___xxtofl+2
  3282  0B66  01F7               	clrf	??___xxtofl+3
  3283  0B67  3018               	movlw	24
  3284  0B68                     u3035:	
  3285  0B68  1003               	clrc
  3286  0B69  0DF4               	rlf	??___xxtofl,f
  3287  0B6A  0DF5               	rlf	??___xxtofl+1,f
  3288  0B6B  0DF6               	rlf	??___xxtofl+2,f
  3289  0B6C  0DF7               	rlf	??___xxtofl+3,f
  3290  0B6D                     u3030:	
  3291  0B6D  3EFF               	addlw	-1
  3292  0B6E  1D03               	skipz
  3293  0B6F  2B68               	goto	u3035
  3294  0B70  0874               	movf	??___xxtofl,w
  3295  0B71  04FA               	iorwf	___xxtofl@arg,f
  3296  0B72  0875               	movf	??___xxtofl+1,w
  3297  0B73  04FB               	iorwf	___xxtofl@arg+1,f
  3298  0B74  0876               	movf	??___xxtofl+2,w
  3299  0B75  04FC               	iorwf	___xxtofl@arg+2,f
  3300  0B76  0877               	movf	??___xxtofl+3,w
  3301  0B77  04FD               	iorwf	___xxtofl@arg+3,f
  3302  0B78                     l2332:	
  3303  0B78  0878               	movf	___xxtofl@sign,w
  3304  0B79  1903               	btfsc	3,2
  3305  0B7A  2B7C               	goto	u3041
  3306  0B7B  2B7D               	goto	u3040
  3307  0B7C                     u3041:	
  3308  0B7C  2B82               	goto	l2338
  3309  0B7D                     u3040:	
  3310  0B7D                     l2334:	
  3311  0B7D  1FF3               	btfss	___xxtofl@val+3,7
  3312  0B7E  2B80               	goto	u3051
  3313  0B7F  2B81               	goto	u3050
  3314  0B80                     u3051:	
  3315  0B80  2B82               	goto	l2338
  3316  0B81                     u3050:	
  3317  0B81                     l2336:	
  3318  0B81  17FD               	bsf	___xxtofl@arg+3,7
  3319  0B82                     l2338:	
  3320  0B82  087D               	movf	___xxtofl@arg+3,w
  3321  0B83  00F3               	movwf	?___xxtofl+3
  3322  0B84  087C               	movf	___xxtofl@arg+2,w
  3323  0B85  00F2               	movwf	?___xxtofl+2
  3324  0B86  087B               	movf	___xxtofl@arg+1,w
  3325  0B87  00F1               	movwf	?___xxtofl+1
  3326  0B88  087A               	movf	___xxtofl@arg,w
  3327  0B89  00F0               	movwf	?___xxtofl
  3328  0B8A                     l707:	
  3329  0B8A  0008               	return
  3330  0B8B                     __end_of___xxtofl:	
  3331                           
  3332                           	psect	text14
  3333  003C                     __ptext14:	
  3334 ;; *************** function ___fltol *****************
  3335 ;; Defined at:
  3336 ;;		line 43 in file "C:\Program Files (x86)\Microchip\xc8\v2.10\pic\sources\c90\common\fltol.c"
  3337 ;; Parameters:    Size  Location     Type
  3338 ;;  f1              4   42[BANK0 ] unsigned char 
  3339 ;; Auto vars:     Size  Location     Type
  3340 ;;  exp1            1   52[BANK0 ] unsigned char 
  3341 ;;  sign1           1   51[BANK0 ] unsigned char 
  3342 ;; Return value:  Size  Location     Type
  3343 ;;                  4   42[BANK0 ] long 
  3344 ;; Registers used:
  3345 ;;		wreg, status,2, status,0
  3346 ;; Tracked objects:
  3347 ;;		On entry : 0/0
  3348 ;;		On exit  : 0/0
  3349 ;;		Unchanged: 0/0
  3350 ;; Data sizes:     COMMON   BANK0   BANK1   BANK3   BANK2
  3351 ;;      Params:         0       4       0       0       0
  3352 ;;      Locals:         0       2       0       0       0
  3353 ;;      Temps:          0       5       0       0       0
  3354 ;;      Totals:         0      11       0       0       0
  3355 ;;Total ram usage:       11 bytes
  3356 ;; Hardware stack levels used:    1
  3357 ;; This function calls:
  3358 ;;		Nothing
  3359 ;; This function is called by:
  3360 ;;		_float2int
  3361 ;; This function uses a non-reentrant model
  3362 ;;
  3363                           
  3364                           
  3365                           ;psect for function ___fltol
  3366  003C                     ___fltol:	
  3367  003C                     l2116:	
  3368                           ;incstack = 0
  3369                           ; Regs used in ___fltol: [wreg+status,2+status,0]
  3370                           
  3371  003C  1003               	clrc
  3372  003D  1283               	bcf	3,5	;RP0=0, select bank0
  3373  003E  1303               	bcf	3,6	;RP1=0, select bank0
  3374  003F  0D4C               	rlf	___fltol@f1+2,w
  3375  0040  0D4D               	rlf	___fltol@f1+3,w
  3376  0041  00CE               	movwf	??___fltol
  3377  0042  084E               	movf	??___fltol,w
  3378  0043  00D4               	movwf	___fltol@exp1
  3379  0044  0854               	movf	___fltol@exp1,w
  3380  0045  1D03               	btfss	3,2
  3381  0046  2848               	goto	u2451
  3382  0047  2849               	goto	u2450
  3383  0048                     u2451:	
  3384  0048  2852               	goto	l2122
  3385  0049                     u2450:	
  3386  0049                     l2118:	
  3387  0049  3000               	movlw	0
  3388  004A  00CD               	movwf	?___fltol+3
  3389  004B  3000               	movlw	0
  3390  004C  00CC               	movwf	?___fltol+2
  3391  004D  3000               	movlw	0
  3392  004E  00CB               	movwf	?___fltol+1
  3393  004F  3000               	movlw	0
  3394  0050  00CA               	movwf	?___fltol
  3395  0051  28B7               	goto	l464
  3396  0052                     l2122:	
  3397  0052  084A               	movf	___fltol@f1,w
  3398  0053  00CE               	movwf	??___fltol
  3399  0054  084B               	movf	___fltol@f1+1,w
  3400  0055  00CF               	movwf	??___fltol+1
  3401  0056  084C               	movf	___fltol@f1+2,w
  3402  0057  00D0               	movwf	??___fltol+2
  3403  0058  084D               	movf	___fltol@f1+3,w
  3404  0059  00D1               	movwf	??___fltol+3
  3405  005A  301F               	movlw	31
  3406  005B                     u2465:	
  3407  005B  1003               	clrc
  3408  005C  0CD1               	rrf	??___fltol+3,f
  3409  005D  0CD0               	rrf	??___fltol+2,f
  3410  005E  0CCF               	rrf	??___fltol+1,f
  3411  005F  0CCE               	rrf	??___fltol,f
  3412  0060                     u2460:	
  3413  0060  3EFF               	addlw	-1
  3414  0061  1D03               	skipz
  3415  0062  285B               	goto	u2465
  3416  0063  084E               	movf	??___fltol,w
  3417  0064  00D2               	movwf	??___fltol+4
  3418  0065  0852               	movf	??___fltol+4,w
  3419  0066  00D3               	movwf	___fltol@sign1
  3420  0067                     l2124:	
  3421  0067  17CC               	bsf	___fltol@f1+2,7
  3422  0068                     l2126:	
  3423  0068  30FF               	movlw	255
  3424  0069  05CA               	andwf	___fltol@f1,f
  3425  006A  30FF               	movlw	255
  3426  006B  05CB               	andwf	___fltol@f1+1,f
  3427  006C  30FF               	movlw	255
  3428  006D  05CC               	andwf	___fltol@f1+2,f
  3429  006E  3000               	movlw	0
  3430  006F  05CD               	andwf	___fltol@f1+3,f
  3431  0070                     l2128:	
  3432  0070  3096               	movlw	150
  3433  0071  02D4               	subwf	___fltol@exp1,f
  3434  0072                     l2130:	
  3435  0072  1FD4               	btfss	___fltol@exp1,7
  3436  0073  2875               	goto	u2471
  3437  0074  2876               	goto	u2470
  3438  0075                     u2471:	
  3439  0075  2890               	goto	l2140
  3440  0076                     u2470:	
  3441  0076                     l2132:	
  3442  0076  0854               	movf	___fltol@exp1,w
  3443  0077  3A80               	xorlw	128
  3444  0078  3E97               	addlw	151
  3445  0079  1803               	skipnc
  3446  007A  287C               	goto	u2481
  3447  007B  287D               	goto	u2480
  3448  007C                     u2481:	
  3449  007C  287E               	goto	l2138
  3450  007D                     u2480:	
  3451  007D  2849               	goto	l2118
  3452  007E                     l2138:	
  3453  007E  3001               	movlw	1
  3454  007F                     u2495:	
  3455  007F  1003               	clrc
  3456  0080  0CCD               	rrf	___fltol@f1+3,f
  3457  0081  0CCC               	rrf	___fltol@f1+2,f
  3458  0082  0CCB               	rrf	___fltol@f1+1,f
  3459  0083  0CCA               	rrf	___fltol@f1,f
  3460  0084  3EFF               	addlw	-1
  3461  0085  1D03               	skipz
  3462  0086  287F               	goto	u2495
  3463  0087  3001               	movlw	1
  3464  0088  00CE               	movwf	??___fltol
  3465  0089  084E               	movf	??___fltol,w
  3466  008A  07D4               	addwf	___fltol@exp1,f
  3467  008B  1D03               	btfss	3,2
  3468  008C  288E               	goto	u2501
  3469  008D  288F               	goto	u2500
  3470  008E                     u2501:	
  3471  008E  287E               	goto	l2138
  3472  008F                     u2500:	
  3473  008F  28A7               	goto	l2148
  3474  0090                     l2140:	
  3475  0090  3020               	movlw	32
  3476  0091  0254               	subwf	___fltol@exp1,w
  3477  0092  1C03               	skipc
  3478  0093  2895               	goto	u2511
  3479  0094  2896               	goto	u2510
  3480  0095                     u2511:	
  3481  0095  28A2               	goto	l471
  3482  0096                     u2510:	
  3483  0096  2849               	goto	l2118
  3484  0097                     l2146:	
  3485  0097  3001               	movlw	1
  3486  0098  00CE               	movwf	??___fltol
  3487  0099                     u2525:	
  3488  0099  1003               	clrc
  3489  009A  0DCA               	rlf	___fltol@f1,f
  3490  009B  0DCB               	rlf	___fltol@f1+1,f
  3491  009C  0DCC               	rlf	___fltol@f1+2,f
  3492  009D  0DCD               	rlf	___fltol@f1+3,f
  3493  009E  0BCE               	decfsz	??___fltol,f
  3494  009F  2899               	goto	u2525
  3495  00A0  3001               	movlw	1
  3496  00A1  02D4               	subwf	___fltol@exp1,f
  3497  00A2                     l471:	
  3498  00A2  0854               	movf	___fltol@exp1,w
  3499  00A3  1D03               	btfss	3,2
  3500  00A4  28A6               	goto	u2531
  3501  00A5  28A7               	goto	u2530
  3502  00A6                     u2531:	
  3503  00A6  2897               	goto	l2146
  3504  00A7                     u2530:	
  3505  00A7                     l2148:	
  3506  00A7  0853               	movf	___fltol@sign1,w
  3507  00A8  1903               	btfsc	3,2
  3508  00A9  28AB               	goto	u2541
  3509  00AA  28AC               	goto	u2540
  3510  00AB                     u2541:	
  3511  00AB  28B7               	goto	l474
  3512  00AC                     u2540:	
  3513  00AC                     l2150:	
  3514  00AC  09CA               	comf	___fltol@f1,f
  3515  00AD  09CB               	comf	___fltol@f1+1,f
  3516  00AE  09CC               	comf	___fltol@f1+2,f
  3517  00AF  09CD               	comf	___fltol@f1+3,f
  3518  00B0  0ACA               	incf	___fltol@f1,f
  3519  00B1  1903               	skipnz
  3520  00B2  0ACB               	incf	___fltol@f1+1,f
  3521  00B3  1903               	skipnz
  3522  00B4  0ACC               	incf	___fltol@f1+2,f
  3523  00B5  1903               	skipnz
  3524  00B6  0ACD               	incf	___fltol@f1+3,f
  3525  00B7                     l474:	
  3526  00B7                     l464:	
  3527  00B7  0008               	return
  3528  00B8                     __end_of___fltol:	
  3529                           
  3530                           	psect	text15
  3531  0834                     __ptext15:	
  3532 ;; *************** function ___flsub *****************
  3533 ;; Defined at:
  3534 ;;		line 242 in file "C:\Program Files (x86)\Microchip\xc8\v2.10\pic\sources\c90\common\sprcadd.c"
  3535 ;; Parameters:    Size  Location     Type
  3536 ;;  a               4    8[BANK0 ] long 
  3537 ;;  b               4   12[BANK0 ] long 
  3538 ;; Auto vars:     Size  Location     Type
  3539 ;;		None
  3540 ;; Return value:  Size  Location     Type
  3541 ;;                  4    8[BANK0 ] long 
  3542 ;; Registers used:
  3543 ;;		wreg, status,2, status,0, btemp+1, pclath, cstack
  3544 ;; Tracked objects:
  3545 ;;		On entry : 0/0
  3546 ;;		On exit  : 0/0
  3547 ;;		Unchanged: 0/0
  3548 ;; Data sizes:     COMMON   BANK0   BANK1   BANK3   BANK2
  3549 ;;      Params:         0       8       0       0       0
  3550 ;;      Locals:         0       0       0       0       0
  3551 ;;      Temps:          0       0       0       0       0
  3552 ;;      Totals:         0       8       0       0       0
  3553 ;;Total ram usage:        8 bytes
  3554 ;; Hardware stack levels used:    1
  3555 ;; Hardware stack levels required when called:    1
  3556 ;; This function calls:
  3557 ;;		___fladd
  3558 ;; This function is called by:
  3559 ;;		_float2int
  3560 ;; This function uses a non-reentrant model
  3561 ;;
  3562                           
  3563                           
  3564                           ;psect for function ___flsub
  3565  0834                     ___flsub:	
  3566  0834                     l2152:	
  3567                           ;incstack = 0
  3568                           ; Regs used in ___flsub: [wreg+status,2+status,0+btemp+1+pclath+cstack]
  3569                           
  3570  0834  3080               	movlw	128
  3571  0835  1283               	bcf	3,5	;RP0=0, select bank0
  3572  0836  1303               	bcf	3,6	;RP1=0, select bank0
  3573  0837  06AB               	xorwf	___flsub@a+3,f
  3574  0838                     l2154:	
  3575  0838  082F               	movf	___flsub@b+3,w
  3576  0839  00F3               	movwf	___fladd@b+3
  3577  083A  082E               	movf	___flsub@b+2,w
  3578  083B  00F2               	movwf	___fladd@b+2
  3579  083C  082D               	movf	___flsub@b+1,w
  3580  083D  00F1               	movwf	___fladd@b+1
  3581  083E  082C               	movf	___flsub@b,w
  3582  083F  00F0               	movwf	___fladd@b
  3583  0840  082B               	movf	___flsub@a+3,w
  3584  0841  00F7               	movwf	___fladd@a+3
  3585  0842  082A               	movf	___flsub@a+2,w
  3586  0843  00F6               	movwf	___fladd@a+2
  3587  0844  0829               	movf	___flsub@a+1,w
  3588  0845  00F5               	movwf	___fladd@a+1
  3589  0846  0828               	movf	___flsub@a,w
  3590  0847  00F4               	movwf	___fladd@a
  3591  0848  120A  158A  2568  120A  158A  	fcall	___fladd
  3592  084D  0873               	movf	?___fladd+3,w
  3593  084E  1283               	bcf	3,5	;RP0=0, select bank0
  3594  084F  1303               	bcf	3,6	;RP1=0, select bank0
  3595  0850  00AB               	movwf	?___flsub+3
  3596  0851  0872               	movf	?___fladd+2,w
  3597  0852  00AA               	movwf	?___flsub+2
  3598  0853  0871               	movf	?___fladd+1,w
  3599  0854  00A9               	movwf	?___flsub+1
  3600  0855  0870               	movf	?___fladd,w
  3601  0856  00A8               	movwf	?___flsub
  3602  0857                     l617:	
  3603  0857  0008               	return
  3604  0858                     __end_of___flsub:	
  3605                           
  3606                           	psect	text16
  3607  0D68                     __ptext16:	
  3608 ;; *************** function ___fladd *****************
  3609 ;; Defined at:
  3610 ;;		line 10 in file "C:\Program Files (x86)\Microchip\xc8\v2.10\pic\sources\c90\common\sprcadd.c"
  3611 ;; Parameters:    Size  Location     Type
  3612 ;;  b               4    0[COMMON] long 
  3613 ;;  a               4    4[COMMON] long 
  3614 ;; Auto vars:     Size  Location     Type
  3615 ;;  grs             1   11[COMMON] unsigned char 
  3616 ;;  bexp            1   10[COMMON] unsigned char 
  3617 ;;  aexp            1    9[COMMON] unsigned char 
  3618 ;;  signs           1    8[COMMON] unsigned char 
  3619 ;; Return value:  Size  Location     Type
  3620 ;;                  4    0[COMMON] unsigned char 
  3621 ;; Registers used:
  3622 ;;		wreg, status,2, status,0, btemp+1
  3623 ;; Tracked objects:
  3624 ;;		On entry : 0/0
  3625 ;;		On exit  : 0/0
  3626 ;;		Unchanged: 0/0
  3627 ;; Data sizes:     COMMON   BANK0   BANK1   BANK3   BANK2
  3628 ;;      Params:         8       0       0       0       0
  3629 ;;      Locals:         4       0       0       0       0
  3630 ;;      Temps:          0       8       0       0       0
  3631 ;;      Totals:        12       8       0       0       0
  3632 ;;Total ram usage:       20 bytes
  3633 ;; Hardware stack levels used:    1
  3634 ;; This function calls:
  3635 ;;		Nothing
  3636 ;; This function is called by:
  3637 ;;		___flsub
  3638 ;; This function uses a non-reentrant model
  3639 ;;
  3640                           
  3641                           
  3642                           ;psect for function ___fladd
  3643  0D68                     ___fladd:	
  3644  0D68                     l1846:	
  3645                           ;incstack = 0
  3646                           ; Regs used in ___fladd: [wreg+status,2+status,0+btemp+1]
  3647                           
  3648  0D68  0873               	movf	___fladd@b+3,w
  3649  0D69  3980               	andlw	128
  3650  0D6A  1283               	bcf	3,5	;RP0=0, select bank0
  3651  0D6B  1303               	bcf	3,6	;RP1=0, select bank0
  3652  0D6C  00A0               	movwf	??___fladd
  3653  0D6D  0820               	movf	??___fladd,w
  3654  0D6E  00F8               	movwf	___fladd@signs
  3655  0D6F                     l1848:	
  3656  0D6F  0873               	movf	___fladd@b+3,w
  3657  0D70  00A0               	movwf	??___fladd
  3658  0D71  0720               	addwf	??___fladd,w
  3659  0D72  00A1               	movwf	??___fladd+1
  3660  0D73  0821               	movf	??___fladd+1,w
  3661  0D74  00FA               	movwf	___fladd@bexp
  3662  0D75                     l1850:	
  3663  0D75  1FF2               	btfss	___fladd@b+2,7
  3664  0D76  2D78               	goto	u1861
  3665  0D77  2D79               	goto	u1860
  3666  0D78                     u1861:	
  3667  0D78  2D7A               	goto	l1854
  3668  0D79                     u1860:	
  3669  0D79                     l1852:	
  3670  0D79  147A               	bsf	___fladd@bexp,0
  3671  0D7A                     l1854:	
  3672  0D7A  087A               	movf	___fladd@bexp,w
  3673  0D7B  1903               	btfsc	3,2
  3674  0D7C  2D7E               	goto	u1871
  3675  0D7D  2D7F               	goto	u1870
  3676  0D7E                     u1871:	
  3677  0D7E  2D8F               	goto	l1864
  3678  0D7F                     u1870:	
  3679  0D7F                     l1856:	
  3680  0D7F  0A7A               	incf	___fladd@bexp,w
  3681  0D80  1D03               	btfss	3,2
  3682  0D81  2D83               	goto	u1881
  3683  0D82  2D84               	goto	u1880
  3684  0D83                     u1881:	
  3685  0D83  2D8C               	goto	l1860
  3686  0D84                     u1880:	
  3687  0D84                     l1858:	
  3688  0D84  3000               	movlw	0
  3689  0D85  00F3               	movwf	___fladd@b+3
  3690  0D86  3000               	movlw	0
  3691  0D87  00F2               	movwf	___fladd@b+2
  3692  0D88  3000               	movlw	0
  3693  0D89  00F1               	movwf	___fladd@b+1
  3694  0D8A  3000               	movlw	0
  3695  0D8B  00F0               	movwf	___fladd@b
  3696  0D8C                     l1860:	
  3697  0D8C  17F2               	bsf	___fladd@b+2,7
  3698  0D8D                     l1862:	
  3699  0D8D  01F3               	clrf	___fladd@b+3
  3700  0D8E  2D97               	goto	l1866
  3701  0D8F                     l1864:	
  3702  0D8F  3000               	movlw	0
  3703  0D90  00F3               	movwf	___fladd@b+3
  3704  0D91  3000               	movlw	0
  3705  0D92  00F2               	movwf	___fladd@b+2
  3706  0D93  3000               	movlw	0
  3707  0D94  00F1               	movwf	___fladd@b+1
  3708  0D95  3000               	movlw	0
  3709  0D96  00F0               	movwf	___fladd@b
  3710  0D97                     l1866:	
  3711  0D97  0877               	movf	___fladd@a+3,w
  3712  0D98  3980               	andlw	128
  3713  0D99  00A0               	movwf	??___fladd
  3714  0D9A  0820               	movf	??___fladd,w
  3715  0D9B  00F9               	movwf	___fladd@aexp
  3716  0D9C                     l1868:	
  3717  0D9C  0879               	movf	___fladd@aexp,w
  3718  0D9D  0678               	xorwf	___fladd@signs,w
  3719  0D9E  1903               	skipnz
  3720  0D9F  2DA1               	goto	u1891
  3721  0DA0  2DA2               	goto	u1890
  3722  0DA1                     u1891:	
  3723  0DA1  2DA3               	goto	l1872
  3724  0DA2                     u1890:	
  3725  0DA2                     l1870:	
  3726  0DA2  1778               	bsf	___fladd@signs,6
  3727  0DA3                     l1872:	
  3728  0DA3  0877               	movf	___fladd@a+3,w
  3729  0DA4  00A0               	movwf	??___fladd
  3730  0DA5  0720               	addwf	??___fladd,w
  3731  0DA6  00A1               	movwf	??___fladd+1
  3732  0DA7  0821               	movf	??___fladd+1,w
  3733  0DA8  00F9               	movwf	___fladd@aexp
  3734  0DA9                     l1874:	
  3735  0DA9  1FF6               	btfss	___fladd@a+2,7
  3736  0DAA  2DAC               	goto	u1901
  3737  0DAB  2DAD               	goto	u1900
  3738  0DAC                     u1901:	
  3739  0DAC  2DAE               	goto	l1878
  3740  0DAD                     u1900:	
  3741  0DAD                     l1876:	
  3742  0DAD  1479               	bsf	___fladd@aexp,0
  3743  0DAE                     l1878:	
  3744  0DAE  0879               	movf	___fladd@aexp,w
  3745  0DAF  1903               	btfsc	3,2
  3746  0DB0  2DB2               	goto	u1911
  3747  0DB1  2DB3               	goto	u1910
  3748  0DB2                     u1911:	
  3749  0DB2  2DC3               	goto	l1888
  3750  0DB3                     u1910:	
  3751  0DB3                     l1880:	
  3752  0DB3  0A79               	incf	___fladd@aexp,w
  3753  0DB4  1D03               	btfss	3,2
  3754  0DB5  2DB7               	goto	u1921
  3755  0DB6  2DB8               	goto	u1920
  3756  0DB7                     u1921:	
  3757  0DB7  2DC0               	goto	l1884
  3758  0DB8                     u1920:	
  3759  0DB8                     l1882:	
  3760  0DB8  3000               	movlw	0
  3761  0DB9  00F7               	movwf	___fladd@a+3
  3762  0DBA  3000               	movlw	0
  3763  0DBB  00F6               	movwf	___fladd@a+2
  3764  0DBC  3000               	movlw	0
  3765  0DBD  00F5               	movwf	___fladd@a+1
  3766  0DBE  3000               	movlw	0
  3767  0DBF  00F4               	movwf	___fladd@a
  3768  0DC0                     l1884:	
  3769  0DC0  17F6               	bsf	___fladd@a+2,7
  3770  0DC1                     l1886:	
  3771  0DC1  01F7               	clrf	___fladd@a+3
  3772  0DC2  2DCB               	goto	l571
  3773  0DC3                     l1888:	
  3774  0DC3  3000               	movlw	0
  3775  0DC4  00F7               	movwf	___fladd@a+3
  3776  0DC5  3000               	movlw	0
  3777  0DC6  00F6               	movwf	___fladd@a+2
  3778  0DC7  3000               	movlw	0
  3779  0DC8  00F5               	movwf	___fladd@a+1
  3780  0DC9  3000               	movlw	0
  3781  0DCA  00F4               	movwf	___fladd@a
  3782  0DCB                     l571:	
  3783  0DCB  087A               	movf	___fladd@bexp,w
  3784  0DCC  0279               	subwf	___fladd@aexp,w
  3785  0DCD  1803               	skipnc
  3786  0DCE  2DD0               	goto	u1931
  3787  0DCF  2DD1               	goto	u1930
  3788  0DD0                     u1931:	
  3789  0DD0  2E15               	goto	l1924
  3790  0DD1                     u1930:	
  3791  0DD1                     l1890:	
  3792  0DD1  1F78               	btfss	___fladd@signs,6
  3793  0DD2  2DD4               	goto	u1941
  3794  0DD3  2DD5               	goto	u1940
  3795  0DD4                     u1941:	
  3796  0DD4  2DD9               	goto	l1894
  3797  0DD5                     u1940:	
  3798  0DD5                     l1892:	
  3799  0DD5  3080               	movlw	128
  3800  0DD6  00A0               	movwf	??___fladd
  3801  0DD7  0820               	movf	??___fladd,w
  3802  0DD8  06F8               	xorwf	___fladd@signs,f
  3803  0DD9                     l1894:	
  3804  0DD9  087A               	movf	___fladd@bexp,w
  3805  0DDA  00A0               	movwf	??___fladd
  3806  0DDB  0820               	movf	??___fladd,w
  3807  0DDC  00FB               	movwf	___fladd@grs
  3808  0DDD                     l1896:	
  3809  0DDD  0879               	movf	___fladd@aexp,w
  3810  0DDE  00A0               	movwf	??___fladd
  3811  0DDF  0820               	movf	??___fladd,w
  3812  0DE0  00FA               	movwf	___fladd@bexp
  3813  0DE1                     l1898:	
  3814  0DE1  087B               	movf	___fladd@grs,w
  3815  0DE2  00A0               	movwf	??___fladd
  3816  0DE3  0820               	movf	??___fladd,w
  3817  0DE4  00F9               	movwf	___fladd@aexp
  3818  0DE5                     l1900:	
  3819  0DE5  0870               	movf	___fladd@b,w
  3820  0DE6  00A0               	movwf	??___fladd
  3821  0DE7  0820               	movf	??___fladd,w
  3822  0DE8  00FB               	movwf	___fladd@grs
  3823  0DE9                     l1902:	
  3824  0DE9  0874               	movf	___fladd@a,w
  3825  0DEA  00A0               	movwf	??___fladd
  3826  0DEB  0820               	movf	??___fladd,w
  3827  0DEC  00F0               	movwf	___fladd@b
  3828  0DED                     l1904:	
  3829  0DED  087B               	movf	___fladd@grs,w
  3830  0DEE  00A0               	movwf	??___fladd
  3831  0DEF  0820               	movf	??___fladd,w
  3832  0DF0  00F4               	movwf	___fladd@a
  3833  0DF1                     l1906:	
  3834  0DF1  0871               	movf	___fladd@b+1,w
  3835  0DF2  00A0               	movwf	??___fladd
  3836  0DF3  0820               	movf	??___fladd,w
  3837  0DF4  00FB               	movwf	___fladd@grs
  3838  0DF5                     l1908:	
  3839  0DF5  0875               	movf	___fladd@a+1,w
  3840  0DF6  00A0               	movwf	??___fladd
  3841  0DF7  0820               	movf	??___fladd,w
  3842  0DF8  00F1               	movwf	___fladd@b+1
  3843  0DF9                     l1910:	
  3844  0DF9  087B               	movf	___fladd@grs,w
  3845  0DFA  00A0               	movwf	??___fladd
  3846  0DFB  0820               	movf	??___fladd,w
  3847  0DFC  00F5               	movwf	___fladd@a+1
  3848  0DFD                     l1912:	
  3849  0DFD  0872               	movf	___fladd@b+2,w
  3850  0DFE  00A0               	movwf	??___fladd
  3851  0DFF  0820               	movf	??___fladd,w
  3852  0E00  00FB               	movwf	___fladd@grs
  3853  0E01                     l1914:	
  3854  0E01  0876               	movf	___fladd@a+2,w
  3855  0E02  00A0               	movwf	??___fladd
  3856  0E03  0820               	movf	??___fladd,w
  3857  0E04  00F2               	movwf	___fladd@b+2
  3858  0E05                     l1916:	
  3859  0E05  087B               	movf	___fladd@grs,w
  3860  0E06  00A0               	movwf	??___fladd
  3861  0E07  0820               	movf	??___fladd,w
  3862  0E08  00F6               	movwf	___fladd@a+2
  3863  0E09                     l1918:	
  3864  0E09  0873               	movf	___fladd@b+3,w
  3865  0E0A  00A0               	movwf	??___fladd
  3866  0E0B  0820               	movf	??___fladd,w
  3867  0E0C  00FB               	movwf	___fladd@grs
  3868  0E0D                     l1920:	
  3869  0E0D  0877               	movf	___fladd@a+3,w
  3870  0E0E  00A0               	movwf	??___fladd
  3871  0E0F  0820               	movf	??___fladd,w
  3872  0E10  00F3               	movwf	___fladd@b+3
  3873  0E11                     l1922:	
  3874  0E11  087B               	movf	___fladd@grs,w
  3875  0E12  00A0               	movwf	??___fladd
  3876  0E13  0820               	movf	??___fladd,w
  3877  0E14  00F7               	movwf	___fladd@a+3
  3878  0E15                     l1924:	
  3879  0E15  01FB               	clrf	___fladd@grs
  3880  0E16                     l1926:	
  3881  0E16  0879               	movf	___fladd@aexp,w
  3882  0E17  00A0               	movwf	??___fladd
  3883  0E18  01A1               	clrf	??___fladd+1
  3884  0E19  0821               	movf	??___fladd+1,w
  3885  0E1A  00A3               	movwf	??___fladd+3
  3886  0E1B  087A               	movf	___fladd@bexp,w
  3887  0E1C  0220               	subwf	??___fladd,w
  3888  0E1D  00A2               	movwf	??___fladd+2
  3889  0E1E  1C03               	skipc
  3890  0E1F  03A3               	decf	??___fladd+3,f
  3891  0E20  0823               	movf	??___fladd+3,w
  3892  0E21  3A80               	xorlw	128
  3893  0E22  00FF               	movwf	btemp+1
  3894  0E23  3080               	movlw	128
  3895  0E24  027F               	subwf	btemp+1,w
  3896  0E25  1D03               	skipz
  3897  0E26  2E29               	goto	u1955
  3898  0E27  301A               	movlw	26
  3899  0E28  0222               	subwf	??___fladd+2,w
  3900  0E29                     u1955:	
  3901  0E29  1C03               	skipc
  3902  0E2A  2E2C               	goto	u1951
  3903  0E2B  2E2D               	goto	u1950
  3904  0E2C                     u1951:	
  3905  0E2C  2E6E               	goto	l1942
  3906  0E2D                     u1950:	
  3907  0E2D                     l1928:	
  3908  0E2D  0873               	movf	___fladd@b+3,w
  3909  0E2E  0472               	iorwf	___fladd@b+2,w
  3910  0E2F  0471               	iorwf	___fladd@b+1,w
  3911  0E30  0470               	iorwf	___fladd@b,w
  3912  0E31  1D03               	skipz
  3913  0E32  2E34               	goto	u1961
  3914  0E33  2E36               	goto	u1960
  3915  0E34                     u1961:	
  3916  0E34  3001               	movlw	1
  3917  0E35  2E37               	goto	u1970
  3918  0E36                     u1960:	
  3919  0E36  3000               	movlw	0
  3920  0E37                     u1970:	
  3921  0E37  1283               	bcf	3,5	;RP0=0, select bank0
  3922  0E38  1303               	bcf	3,6	;RP1=0, select bank0
  3923  0E39  00A0               	movwf	??___fladd
  3924  0E3A  0820               	movf	??___fladd,w
  3925  0E3B  00FB               	movwf	___fladd@grs
  3926  0E3C  3000               	movlw	0
  3927  0E3D  00F3               	movwf	___fladd@b+3
  3928  0E3E  3000               	movlw	0
  3929  0E3F  00F2               	movwf	___fladd@b+2
  3930  0E40  3000               	movlw	0
  3931  0E41  00F1               	movwf	___fladd@b+1
  3932  0E42  3000               	movlw	0
  3933  0E43  00F0               	movwf	___fladd@b
  3934  0E44  0879               	movf	___fladd@aexp,w
  3935  0E45  00A0               	movwf	??___fladd
  3936  0E46  0820               	movf	??___fladd,w
  3937  0E47  00FA               	movwf	___fladd@bexp
  3938  0E48  2E74               	goto	l575
  3939  0E49                     l577:	
  3940  0E49  1C7B               	btfss	___fladd@grs,0
  3941  0E4A  2E4C               	goto	u1981
  3942  0E4B  2E4D               	goto	u1980
  3943  0E4C                     u1981:	
  3944  0E4C  2E58               	goto	l1932
  3945  0E4D                     u1980:	
  3946  0E4D                     l1930:	
  3947  0E4D  087B               	movf	___fladd@grs,w
  3948  0E4E  1283               	bcf	3,5	;RP0=0, select bank0
  3949  0E4F  1303               	bcf	3,6	;RP1=0, select bank0
  3950  0E50  00A0               	movwf	??___fladd
  3951  0E51  1003               	clrc
  3952  0E52  0C20               	rrf	??___fladd,w
  3953  0E53  3801               	iorlw	1
  3954  0E54  00A1               	movwf	??___fladd+1
  3955  0E55  0821               	movf	??___fladd+1,w
  3956  0E56  00FB               	movwf	___fladd@grs
  3957  0E57  2E5A               	goto	l1934
  3958  0E58                     l1932:	
  3959  0E58  1003               	clrc
  3960  0E59  0CFB               	rrf	___fladd@grs,f
  3961  0E5A                     l1934:	
  3962  0E5A  1C70               	btfss	___fladd@b,0
  3963  0E5B  2E5D               	goto	u1991
  3964  0E5C  2E5E               	goto	u1990
  3965  0E5D                     u1991:	
  3966  0E5D  2E5F               	goto	l1938
  3967  0E5E                     u1990:	
  3968  0E5E                     l1936:	
  3969  0E5E  17FB               	bsf	___fladd@grs,7
  3970  0E5F                     l1938:	
  3971  0E5F  3001               	movlw	1
  3972  0E60  1283               	bcf	3,5	;RP0=0, select bank0
  3973  0E61  1303               	bcf	3,6	;RP1=0, select bank0
  3974  0E62  00A0               	movwf	??___fladd
  3975  0E63                     u2005:	
  3976  0E63  0D73               	rlf	___fladd@b+3,w
  3977  0E64  0CF3               	rrf	___fladd@b+3,f
  3978  0E65  0CF2               	rrf	___fladd@b+2,f
  3979  0E66  0CF1               	rrf	___fladd@b+1,f
  3980  0E67  0CF0               	rrf	___fladd@b,f
  3981  0E68  0BA0               	decfsz	??___fladd& (0+127),f
  3982  0E69  2E63               	goto	u2005
  3983  0E6A                     l1940:	
  3984  0E6A  3001               	movlw	1
  3985  0E6B  00A0               	movwf	??___fladd
  3986  0E6C  0820               	movf	??___fladd,w
  3987  0E6D  07FA               	addwf	___fladd@bexp,f
  3988  0E6E                     l1942:	
  3989  0E6E  0879               	movf	___fladd@aexp,w
  3990  0E6F  027A               	subwf	___fladd@bexp,w
  3991  0E70  1C03               	skipc
  3992  0E71  2E73               	goto	u2011
  3993  0E72  2E74               	goto	u2010
  3994  0E73                     u2011:	
  3995  0E73  2E49               	goto	l577
  3996  0E74                     u2010:	
  3997  0E74                     l575:	
  3998  0E74  1B78               	btfsc	___fladd@signs,6
  3999  0E75  2E77               	goto	u2021
  4000  0E76  2E78               	goto	u2020
  4001  0E77                     u2021:	
  4002  0E77  2EC7               	goto	l1968
  4003  0E78                     u2020:	
  4004  0E78                     l1944:	
  4005  0E78  087A               	movf	___fladd@bexp,w
  4006  0E79  1D03               	btfss	3,2
  4007  0E7A  2E7C               	goto	u2031
  4008  0E7B  2E7D               	goto	u2030
  4009  0E7C                     u2031:	
  4010  0E7C  2E86               	goto	l1950
  4011  0E7D                     u2030:	
  4012  0E7D                     l1946:	
  4013  0E7D  3000               	movlw	0
  4014  0E7E  00F3               	movwf	?___fladd+3
  4015  0E7F  3000               	movlw	0
  4016  0E80  00F2               	movwf	?___fladd+2
  4017  0E81  3000               	movlw	0
  4018  0E82  00F1               	movwf	?___fladd+1
  4019  0E83  3000               	movlw	0
  4020  0E84  00F0               	movwf	?___fladd
  4021  0E85  2FFF               	goto	l584
  4022  0E86                     l1950:	
  4023  0E86  0874               	movf	___fladd@a,w
  4024  0E87  07F0               	addwf	___fladd@b,f
  4025  0E88  0875               	movf	___fladd@a+1,w
  4026  0E89  1103               	clrz
  4027  0E8A  1803               	skipnc
  4028  0E8B  3E01               	addlw	1
  4029  0E8C  1903               	skipnz
  4030  0E8D  2E8F               	goto	u2041
  4031  0E8E  07F1               	addwf	___fladd@b+1,f
  4032  0E8F                     u2041:	
  4033  0E8F  0876               	movf	___fladd@a+2,w
  4034  0E90  1103               	clrz
  4035  0E91  1803               	skipnc
  4036  0E92  3E01               	addlw	1
  4037  0E93  1903               	skipnz
  4038  0E94  2E96               	goto	u2042
  4039  0E95  07F2               	addwf	___fladd@b+2,f
  4040  0E96                     u2042:	
  4041  0E96  0877               	movf	___fladd@a+3,w
  4042  0E97  1103               	clrz
  4043  0E98  1803               	skipnc
  4044  0E99  3E01               	addlw	1
  4045  0E9A  1903               	skipnz
  4046  0E9B  2E9D               	goto	u2043
  4047  0E9C  07F3               	addwf	___fladd@b+3,f
  4048  0E9D                     u2043:	
  4049  0E9D                     l1952:	
  4050  0E9D  1C73               	btfss	___fladd@b+3,0
  4051  0E9E  2EA0               	goto	u2051
  4052  0E9F  2EA1               	goto	u2050
  4053  0EA0                     u2051:	
  4054  0EA0  2F7F               	goto	l2002
  4055  0EA1                     u2050:	
  4056  0EA1                     l1954:	
  4057  0EA1  1C7B               	btfss	___fladd@grs,0
  4058  0EA2  2EA4               	goto	u2061
  4059  0EA3  2EA5               	goto	u2060
  4060  0EA4                     u2061:	
  4061  0EA4  2EB0               	goto	l1958
  4062  0EA5                     u2060:	
  4063  0EA5                     l1956:	
  4064  0EA5  087B               	movf	___fladd@grs,w
  4065  0EA6  1283               	bcf	3,5	;RP0=0, select bank0
  4066  0EA7  1303               	bcf	3,6	;RP1=0, select bank0
  4067  0EA8  00A0               	movwf	??___fladd
  4068  0EA9  1003               	clrc
  4069  0EAA  0C20               	rrf	??___fladd,w
  4070  0EAB  3801               	iorlw	1
  4071  0EAC  00A1               	movwf	??___fladd+1
  4072  0EAD  0821               	movf	??___fladd+1,w
  4073  0EAE  00FB               	movwf	___fladd@grs
  4074  0EAF  2EB2               	goto	l1960
  4075  0EB0                     l1958:	
  4076  0EB0  1003               	clrc
  4077  0EB1  0CFB               	rrf	___fladd@grs,f
  4078  0EB2                     l1960:	
  4079  0EB2  1C70               	btfss	___fladd@b,0
  4080  0EB3  2EB5               	goto	u2071
  4081  0EB4  2EB6               	goto	u2070
  4082  0EB5                     u2071:	
  4083  0EB5  2EB7               	goto	l1964
  4084  0EB6                     u2070:	
  4085  0EB6                     l1962:	
  4086  0EB6  17FB               	bsf	___fladd@grs,7
  4087  0EB7                     l1964:	
  4088  0EB7  3001               	movlw	1
  4089  0EB8  1283               	bcf	3,5	;RP0=0, select bank0
  4090  0EB9  1303               	bcf	3,6	;RP1=0, select bank0
  4091  0EBA  00A0               	movwf	??___fladd
  4092  0EBB                     u2085:	
  4093  0EBB  0D73               	rlf	___fladd@b+3,w
  4094  0EBC  0CF3               	rrf	___fladd@b+3,f
  4095  0EBD  0CF2               	rrf	___fladd@b+2,f
  4096  0EBE  0CF1               	rrf	___fladd@b+1,f
  4097  0EBF  0CF0               	rrf	___fladd@b,f
  4098  0EC0  0BA0               	decfsz	??___fladd& (0+127),f
  4099  0EC1  2EBB               	goto	u2085
  4100  0EC2                     l1966:	
  4101  0EC2  3001               	movlw	1
  4102  0EC3  00A0               	movwf	??___fladd
  4103  0EC4  0820               	movf	??___fladd,w
  4104  0EC5  07FA               	addwf	___fladd@bexp,f
  4105  0EC6  2F7F               	goto	l2002
  4106  0EC7                     l1968:	
  4107  0EC7  0873               	movf	___fladd@b+3,w
  4108  0EC8  3A80               	xorlw	128
  4109  0EC9  00FF               	movwf	btemp+1
  4110  0ECA  0877               	movf	___fladd@a+3,w
  4111  0ECB  3A80               	xorlw	128
  4112  0ECC  027F               	subwf	btemp+1,w
  4113  0ECD  1D03               	skipz
  4114  0ECE  2ED9               	goto	u2093
  4115  0ECF  0876               	movf	___fladd@a+2,w
  4116  0ED0  0272               	subwf	___fladd@b+2,w
  4117  0ED1  1D03               	skipz
  4118  0ED2  2ED9               	goto	u2093
  4119  0ED3  0875               	movf	___fladd@a+1,w
  4120  0ED4  0271               	subwf	___fladd@b+1,w
  4121  0ED5  1D03               	skipz
  4122  0ED6  2ED9               	goto	u2093
  4123  0ED7  0874               	movf	___fladd@a,w
  4124  0ED8  0270               	subwf	___fladd@b,w
  4125  0ED9                     u2093:	
  4126  0ED9  1803               	skipnc
  4127  0EDA  2EDC               	goto	u2091
  4128  0EDB  2EDD               	goto	u2090
  4129  0EDC                     u2091:	
  4130  0EDC  2F37               	goto	l1978
  4131  0EDD                     u2090:	
  4132  0EDD                     l1970:	
  4133  0EDD  30FF               	movlw	255
  4134  0EDE  1283               	bcf	3,5	;RP0=0, select bank0
  4135  0EDF  1303               	bcf	3,6	;RP1=0, select bank0
  4136  0EE0  00A0               	movwf	??___fladd
  4137  0EE1  30FF               	movlw	255
  4138  0EE2  00A1               	movwf	??___fladd+1
  4139  0EE3  30FF               	movlw	255
  4140  0EE4  00A2               	movwf	??___fladd+2
  4141  0EE5  30FF               	movlw	255
  4142  0EE6  00A3               	movwf	??___fladd+3
  4143  0EE7  0874               	movf	___fladd@a,w
  4144  0EE8  00A4               	movwf	??___fladd+4
  4145  0EE9  0875               	movf	___fladd@a+1,w
  4146  0EEA  00A5               	movwf	??___fladd+5
  4147  0EEB  0876               	movf	___fladd@a+2,w
  4148  0EEC  00A6               	movwf	??___fladd+6
  4149  0EED  0877               	movf	___fladd@a+3,w
  4150  0EEE  00A7               	movwf	??___fladd+7
  4151  0EEF  0870               	movf	___fladd@b,w
  4152  0EF0  02A4               	subwf	??___fladd+4,f
  4153  0EF1  0871               	movf	___fladd@b+1,w
  4154  0EF2  1C03               	skipc
  4155  0EF3  0F71               	incfsz	___fladd@b+1,w
  4156  0EF4  2EF6               	goto	u2101
  4157  0EF5  2EF7               	goto	u2102
  4158  0EF6                     u2101:	
  4159  0EF6  02A5               	subwf	??___fladd+5,f
  4160  0EF7                     u2102:	
  4161  0EF7  0872               	movf	___fladd@b+2,w
  4162  0EF8  1C03               	skipc
  4163  0EF9  0F72               	incfsz	___fladd@b+2,w
  4164  0EFA  2EFC               	goto	u2103
  4165  0EFB  2EFD               	goto	u2104
  4166  0EFC                     u2103:	
  4167  0EFC  02A6               	subwf	??___fladd+6,f
  4168  0EFD                     u2104:	
  4169  0EFD  0873               	movf	___fladd@b+3,w
  4170  0EFE  1C03               	skipc
  4171  0EFF  0F73               	incfsz	___fladd@b+3,w
  4172  0F00  2F02               	goto	u2105
  4173  0F01  2F03               	goto	u2106
  4174  0F02                     u2105:	
  4175  0F02  02A7               	subwf	??___fladd+7,f
  4176  0F03                     u2106:	
  4177  0F03  0824               	movf	??___fladd+4,w
  4178  0F04  07A0               	addwf	??___fladd,f
  4179  0F05  0825               	movf	??___fladd+5,w
  4180  0F06  1803               	skipnc
  4181  0F07  0F25               	incfsz	??___fladd+5,w
  4182  0F08  2F0A               	goto	u2110
  4183  0F09  2F0B               	goto	u2111
  4184  0F0A                     u2110:	
  4185  0F0A  07A1               	addwf	??___fladd+1,f
  4186  0F0B                     u2111:	
  4187  0F0B  0826               	movf	??___fladd+6,w
  4188  0F0C  1803               	skipnc
  4189  0F0D  0F26               	incfsz	??___fladd+6,w
  4190  0F0E  2F10               	goto	u2112
  4191  0F0F  2F11               	goto	u2113
  4192  0F10                     u2112:	
  4193  0F10  07A2               	addwf	??___fladd+2,f
  4194  0F11                     u2113:	
  4195  0F11  0827               	movf	??___fladd+7,w
  4196  0F12  1803               	skipnc
  4197  0F13  0A27               	incf	??___fladd+7,w
  4198  0F14  07A3               	addwf	??___fladd+3,f
  4199  0F15  0823               	movf	??___fladd+3,w
  4200  0F16  00F3               	movwf	___fladd@b+3
  4201  0F17  0822               	movf	??___fladd+2,w
  4202  0F18  00F2               	movwf	___fladd@b+2
  4203  0F19  0821               	movf	??___fladd+1,w
  4204  0F1A  00F1               	movwf	___fladd@b+1
  4205  0F1B  0820               	movf	??___fladd,w
  4206  0F1C  00F0               	movwf	___fladd@b
  4207  0F1D                     l1972:	
  4208  0F1D  3080               	movlw	128
  4209  0F1E  00A0               	movwf	??___fladd
  4210  0F1F  0820               	movf	??___fladd,w
  4211  0F20  06F8               	xorwf	___fladd@signs,f
  4212  0F21  09FB               	comf	___fladd@grs,f
  4213  0F22  0AFB               	incf	___fladd@grs,f
  4214  0F23                     l1974:	
  4215  0F23  087B               	movf	___fladd@grs,w
  4216  0F24  1D03               	btfss	3,2
  4217  0F25  2F27               	goto	u2121
  4218  0F26  2F28               	goto	u2120
  4219  0F27                     u2121:	
  4220  0F27  2F45               	goto	l592
  4221  0F28                     u2120:	
  4222  0F28                     l1976:	
  4223  0F28  3001               	movlw	1
  4224  0F29  07F0               	addwf	___fladd@b,f
  4225  0F2A  3000               	movlw	0
  4226  0F2B  1803               	skipnc
  4227  0F2C  3001               	movlw	1
  4228  0F2D  07F1               	addwf	___fladd@b+1,f
  4229  0F2E  3000               	movlw	0
  4230  0F2F  1803               	skipnc
  4231  0F30  3001               	movlw	1
  4232  0F31  07F2               	addwf	___fladd@b+2,f
  4233  0F32  3000               	movlw	0
  4234  0F33  1803               	skipnc
  4235  0F34  3001               	movlw	1
  4236  0F35  07F3               	addwf	___fladd@b+3,f
  4237  0F36  2F45               	goto	l592
  4238  0F37                     l1978:	
  4239  0F37  0874               	movf	___fladd@a,w
  4240  0F38  02F0               	subwf	___fladd@b,f
  4241  0F39  0875               	movf	___fladd@a+1,w
  4242  0F3A  1C03               	skipc
  4243  0F3B  0F75               	incfsz	___fladd@a+1,w
  4244  0F3C  02F1               	subwf	___fladd@b+1,f
  4245  0F3D  0876               	movf	___fladd@a+2,w
  4246  0F3E  1C03               	skipc
  4247  0F3F  0F76               	incfsz	___fladd@a+2,w
  4248  0F40  02F2               	subwf	___fladd@b+2,f
  4249  0F41  0877               	movf	___fladd@a+3,w
  4250  0F42  1C03               	skipc
  4251  0F43  0F77               	incfsz	___fladd@a+3,w
  4252  0F44  02F3               	subwf	___fladd@b+3,f
  4253  0F45                     l592:	
  4254  0F45  0873               	movf	___fladd@b+3,w
  4255  0F46  0472               	iorwf	___fladd@b+2,w
  4256  0F47  0471               	iorwf	___fladd@b+1,w
  4257  0F48  0470               	iorwf	___fladd@b,w
  4258  0F49  1D03               	skipz
  4259  0F4A  2F4C               	goto	u2131
  4260  0F4B  2F4D               	goto	u2130
  4261  0F4C                     u2131:	
  4262  0F4C  2F7B               	goto	l2000
  4263  0F4D                     u2130:	
  4264  0F4D                     l1980:	
  4265  0F4D  087B               	movf	___fladd@grs,w
  4266  0F4E  1D03               	btfss	3,2
  4267  0F4F  2F51               	goto	u2141
  4268  0F50  2F52               	goto	u2140
  4269  0F51                     u2141:	
  4270  0F51  2F7B               	goto	l2000
  4271  0F52                     u2140:	
  4272  0F52                     l1982:	
  4273  0F52  3000               	movlw	0
  4274  0F53  00F3               	movwf	?___fladd+3
  4275  0F54  3000               	movlw	0
  4276  0F55  00F2               	movwf	?___fladd+2
  4277  0F56  3000               	movlw	0
  4278  0F57  00F1               	movwf	?___fladd+1
  4279  0F58  3000               	movlw	0
  4280  0F59  00F0               	movwf	?___fladd
  4281  0F5A  2FFF               	goto	l584
  4282  0F5B                     l1986:	
  4283  0F5B  3001               	movlw	1
  4284  0F5C  1283               	bcf	3,5	;RP0=0, select bank0
  4285  0F5D  1303               	bcf	3,6	;RP1=0, select bank0
  4286  0F5E  00A0               	movwf	??___fladd
  4287  0F5F                     u2155:	
  4288  0F5F  1003               	clrc
  4289  0F60  0DF0               	rlf	___fladd@b,f
  4290  0F61  0DF1               	rlf	___fladd@b+1,f
  4291  0F62  0DF2               	rlf	___fladd@b+2,f
  4292  0F63  0DF3               	rlf	___fladd@b+3,f
  4293  0F64  0BA0               	decfsz	??___fladd,f
  4294  0F65  2F5F               	goto	u2155
  4295  0F66                     l1988:	
  4296  0F66  1FFB               	btfss	___fladd@grs,7
  4297  0F67  2F69               	goto	u2161
  4298  0F68  2F6A               	goto	u2160
  4299  0F69                     u2161:	
  4300  0F69  2F6B               	goto	l596
  4301  0F6A                     u2160:	
  4302  0F6A                     l1990:	
  4303  0F6A  1470               	bsf	___fladd@b,0
  4304  0F6B                     l596:	
  4305  0F6B  1C7B               	btfss	___fladd@grs,0
  4306  0F6C  2F6E               	goto	u2171
  4307  0F6D  2F6F               	goto	u2170
  4308  0F6E                     u2171:	
  4309  0F6E  2F72               	goto	l1994
  4310  0F6F                     u2170:	
  4311  0F6F                     l1992:	
  4312  0F6F  1403               	setc
  4313  0F70  0DFB               	rlf	___fladd@grs,f
  4314  0F71  2F74               	goto	l1996
  4315  0F72                     l1994:	
  4316  0F72  1003               	clrc
  4317  0F73  0DFB               	rlf	___fladd@grs,f
  4318  0F74                     l1996:	
  4319  0F74  087A               	movf	___fladd@bexp,w
  4320  0F75  1903               	btfsc	3,2
  4321  0F76  2F78               	goto	u2181
  4322  0F77  2F79               	goto	u2180
  4323  0F78                     u2181:	
  4324  0F78  2F7B               	goto	l2000
  4325  0F79                     u2180:	
  4326  0F79                     l1998:	
  4327  0F79  3001               	movlw	1
  4328  0F7A  02FA               	subwf	___fladd@bexp,f
  4329  0F7B                     l2000:	
  4330  0F7B  1FF2               	btfss	___fladd@b+2,7
  4331  0F7C  2F7E               	goto	u2191
  4332  0F7D  2F7F               	goto	u2190
  4333  0F7E                     u2191:	
  4334  0F7E  2F5B               	goto	l1986
  4335  0F7F                     u2190:	
  4336  0F7F                     l2002:	
  4337  0F7F  01F9               	clrf	___fladd@aexp
  4338  0F80                     l2004:	
  4339  0F80  1FFB               	btfss	___fladd@grs,7
  4340  0F81  2F83               	goto	u2201
  4341  0F82  2F84               	goto	u2200
  4342  0F83                     u2201:	
  4343  0F83  2F92               	goto	l2012
  4344  0F84                     u2200:	
  4345  0F84                     l2006:	
  4346  0F84  087B               	movf	___fladd@grs,w
  4347  0F85  397F               	andlw	127
  4348  0F86  1903               	btfsc	3,2
  4349  0F87  2F89               	goto	u2211
  4350  0F88  2F8A               	goto	u2210
  4351  0F89                     u2211:	
  4352  0F89  2F8D               	goto	l602
  4353  0F8A                     u2210:	
  4354  0F8A                     l2008:	
  4355  0F8A  01F9               	clrf	___fladd@aexp
  4356  0F8B  0AF9               	incf	___fladd@aexp,f
  4357  0F8C  2F92               	goto	l2012
  4358  0F8D                     l602:	
  4359  0F8D  1C70               	btfss	___fladd@b,0
  4360  0F8E  2F90               	goto	u2221
  4361  0F8F  2F91               	goto	u2220
  4362  0F90                     u2221:	
  4363  0F90  2F92               	goto	l2012
  4364  0F91                     u2220:	
  4365  0F91  2F8A               	goto	l2008
  4366  0F92                     l2012:	
  4367  0F92  0879               	movf	___fladd@aexp,w
  4368  0F93  1903               	btfsc	3,2
  4369  0F94  2F96               	goto	u2231
  4370  0F95  2F97               	goto	u2230
  4371  0F96                     u2231:	
  4372  0F96  2FCD               	goto	l605
  4373  0F97                     u2230:	
  4374  0F97                     l2014:	
  4375  0F97  3001               	movlw	1
  4376  0F98  07F0               	addwf	___fladd@b,f
  4377  0F99  3000               	movlw	0
  4378  0F9A  1803               	skipnc
  4379  0F9B  3001               	movlw	1
  4380  0F9C  07F1               	addwf	___fladd@b+1,f
  4381  0F9D  3000               	movlw	0
  4382  0F9E  1803               	skipnc
  4383  0F9F  3001               	movlw	1
  4384  0FA0  07F2               	addwf	___fladd@b+2,f
  4385  0FA1  3000               	movlw	0
  4386  0FA2  1803               	skipnc
  4387  0FA3  3001               	movlw	1
  4388  0FA4  07F3               	addwf	___fladd@b+3,f
  4389  0FA5                     l2016:	
  4390  0FA5  1C73               	btfss	___fladd@b+3,0
  4391  0FA6  2FA8               	goto	u2241
  4392  0FA7  2FA9               	goto	u2240
  4393  0FA8                     u2241:	
  4394  0FA8  2FCD               	goto	l605
  4395  0FA9                     u2240:	
  4396  0FA9                     l2018:	
  4397  0FA9  0870               	movf	___fladd@b,w
  4398  0FAA  1283               	bcf	3,5	;RP0=0, select bank0
  4399  0FAB  1303               	bcf	3,6	;RP1=0, select bank0
  4400  0FAC  00A0               	movwf	??___fladd
  4401  0FAD  0871               	movf	___fladd@b+1,w
  4402  0FAE  00A1               	movwf	??___fladd+1
  4403  0FAF  0872               	movf	___fladd@b+2,w
  4404  0FB0  00A2               	movwf	??___fladd+2
  4405  0FB1  0873               	movf	___fladd@b+3,w
  4406  0FB2  00A3               	movwf	??___fladd+3
  4407  0FB3  3001               	movlw	1
  4408  0FB4  00A4               	movwf	??___fladd+4
  4409  0FB5                     u2255:	
  4410  0FB5  0D23               	rlf	??___fladd+3,w
  4411  0FB6  0CA3               	rrf	??___fladd+3,f
  4412  0FB7  0CA2               	rrf	??___fladd+2,f
  4413  0FB8  0CA1               	rrf	??___fladd+1,f
  4414  0FB9  0CA0               	rrf	??___fladd,f
  4415  0FBA                     u2250:	
  4416  0FBA  0BA4               	decfsz	??___fladd+4,f
  4417  0FBB  2FB5               	goto	u2255
  4418  0FBC  0823               	movf	??___fladd+3,w
  4419  0FBD  00F3               	movwf	___fladd@b+3
  4420  0FBE  0822               	movf	??___fladd+2,w
  4421  0FBF  00F2               	movwf	___fladd@b+2
  4422  0FC0  0821               	movf	??___fladd+1,w
  4423  0FC1  00F1               	movwf	___fladd@b+1
  4424  0FC2  0820               	movf	??___fladd,w
  4425  0FC3  00F0               	movwf	___fladd@b
  4426  0FC4  0A7A               	incf	___fladd@bexp,w
  4427  0FC5  1903               	btfsc	3,2
  4428  0FC6  2FC8               	goto	u2261
  4429  0FC7  2FC9               	goto	u2260
  4430  0FC8                     u2261:	
  4431  0FC8  2FCD               	goto	l605
  4432  0FC9                     u2260:	
  4433  0FC9                     l2020:	
  4434  0FC9  3001               	movlw	1
  4435  0FCA  00A0               	movwf	??___fladd
  4436  0FCB  0820               	movf	??___fladd,w
  4437  0FCC  07FA               	addwf	___fladd@bexp,f
  4438  0FCD                     l605:	
  4439  0FCD  0A7A               	incf	___fladd@bexp,w
  4440  0FCE  1903               	btfsc	3,2
  4441  0FCF  2FD1               	goto	u2271
  4442  0FD0  2FD2               	goto	u2270
  4443  0FD1                     u2271:	
  4444  0FD1  2FD7               	goto	l2024
  4445  0FD2                     u2270:	
  4446  0FD2                     l2022:	
  4447  0FD2  087A               	movf	___fladd@bexp,w
  4448  0FD3  1D03               	btfss	3,2
  4449  0FD4  2FD6               	goto	u2281
  4450  0FD5  2FD7               	goto	u2280
  4451  0FD6                     u2281:	
  4452  0FD6  2FE5               	goto	l2030
  4453  0FD7                     u2280:	
  4454  0FD7                     l2024:	
  4455  0FD7  3000               	movlw	0
  4456  0FD8  00F3               	movwf	___fladd@b+3
  4457  0FD9  3000               	movlw	0
  4458  0FDA  00F2               	movwf	___fladd@b+2
  4459  0FDB  3000               	movlw	0
  4460  0FDC  00F1               	movwf	___fladd@b+1
  4461  0FDD  3000               	movlw	0
  4462  0FDE  00F0               	movwf	___fladd@b
  4463  0FDF                     l2026:	
  4464  0FDF  087A               	movf	___fladd@bexp,w
  4465  0FE0  1D03               	btfss	3,2
  4466  0FE1  2FE3               	goto	u2291
  4467  0FE2  2FE4               	goto	u2290
  4468  0FE3                     u2291:	
  4469  0FE3  2FE5               	goto	l2030
  4470  0FE4                     u2290:	
  4471  0FE4                     l2028:	
  4472  0FE4  01F8               	clrf	___fladd@signs
  4473  0FE5                     l2030:	
  4474  0FE5  1C7A               	btfss	___fladd@bexp,0
  4475  0FE6  2FE8               	goto	u2301
  4476  0FE7  2FE9               	goto	u2300
  4477  0FE8                     u2301:	
  4478  0FE8  2FEB               	goto	l2034
  4479  0FE9                     u2300:	
  4480  0FE9                     l2032:	
  4481  0FE9  17F2               	bsf	___fladd@b+2,7
  4482  0FEA  2FF1               	goto	l613
  4483  0FEB                     l2034:	
  4484  0FEB  307F               	movlw	127
  4485  0FEC  1283               	bcf	3,5	;RP0=0, select bank0
  4486  0FED  1303               	bcf	3,6	;RP1=0, select bank0
  4487  0FEE  00A0               	movwf	??___fladd
  4488  0FEF  0820               	movf	??___fladd,w
  4489  0FF0  05F2               	andwf	___fladd@b+2,f
  4490  0FF1                     l613:	
  4491  0FF1  087A               	movf	___fladd@bexp,w
  4492  0FF2  1283               	bcf	3,5	;RP0=0, select bank0
  4493  0FF3  1303               	bcf	3,6	;RP1=0, select bank0
  4494  0FF4  00A0               	movwf	??___fladd
  4495  0FF5  1003               	clrc
  4496  0FF6  0C20               	rrf	??___fladd,w
  4497  0FF7  00A1               	movwf	??___fladd+1
  4498  0FF8  0821               	movf	??___fladd+1,w
  4499  0FF9  00F3               	movwf	___fladd@b+3
  4500  0FFA                     l2036:	
  4501  0FFA  1FF8               	btfss	___fladd@signs,7
  4502  0FFB  2FFD               	goto	u2311
  4503  0FFC  2FFE               	goto	u2310
  4504  0FFD                     u2311:	
  4505  0FFD  2FFF               	goto	l614
  4506  0FFE                     u2310:	
  4507  0FFE                     l2038:	
  4508  0FFE  17F3               	bsf	___fladd@b+3,7
  4509  0FFF                     l614:	
  4510  0FFF                     l584:	
  4511  0FFF  0008               	return
  4512  1000                     __end_of___fladd:	
  4513                           
  4514                           	psect	text17
  4515  0489                     __ptext17:	
  4516 ;; *************** function ___flmul *****************
  4517 ;; Defined at:
  4518 ;;		line 8 in file "C:\Program Files (x86)\Microchip\xc8\v2.10\pic\sources\c90\common\sprcmul.c"
  4519 ;; Parameters:    Size  Location     Type
  4520 ;;  b               4   16[BANK0 ] unsigned char 
  4521 ;;  a               4   20[BANK0 ] unsigned char 
  4522 ;; Auto vars:     Size  Location     Type
  4523 ;;  prod            4   36[BANK0 ] struct .
  4524 ;;  grs             4   30[BANK0 ] unsigned long 
  4525 ;;  temp            2   40[BANK0 ] struct .
  4526 ;;  bexp            1   35[BANK0 ] unsigned char 
  4527 ;;  aexp            1   34[BANK0 ] unsigned char 
  4528 ;;  sign            1   29[BANK0 ] unsigned char 
  4529 ;; Return value:  Size  Location     Type
  4530 ;;                  4   16[BANK0 ] unsigned char 
  4531 ;; Registers used:
  4532 ;;		wreg, status,2, status,0, btemp+1, pclath, cstack
  4533 ;; Tracked objects:
  4534 ;;		On entry : 0/0
  4535 ;;		On exit  : 0/0
  4536 ;;		Unchanged: 0/0
  4537 ;; Data sizes:     COMMON   BANK0   BANK1   BANK3   BANK2
  4538 ;;      Params:         0       8       0       0       0
  4539 ;;      Locals:         0      13       0       0       0
  4540 ;;      Temps:          0       5       0       0       0
  4541 ;;      Totals:         0      26       0       0       0
  4542 ;;Total ram usage:       26 bytes
  4543 ;; Hardware stack levels used:    1
  4544 ;; Hardware stack levels required when called:    1
  4545 ;; This function calls:
  4546 ;;		__Umul8_16
  4547 ;; This function is called by:
  4548 ;;		_main
  4549 ;;		_float2int
  4550 ;; This function uses a non-reentrant model
  4551 ;;
  4552                           
  4553                           
  4554                           ;psect for function ___flmul
  4555  0489                     ___flmul:	
  4556  0489                     l2158:	
  4557                           ;incstack = 0
  4558                           ; Regs used in ___flmul: [wreg+status,2+status,0+btemp+1+pclath+cstack]
  4559                           
  4560  0489  1283               	bcf	3,5	;RP0=0, select bank0
  4561  048A  1303               	bcf	3,6	;RP1=0, select bank0
  4562  048B  0833               	movf	___flmul@b+3,w
  4563  048C  3980               	andlw	128
  4564  048D  00B8               	movwf	??___flmul
  4565  048E  0838               	movf	??___flmul,w
  4566  048F  00BD               	movwf	___flmul@sign
  4567  0490                     l2160:	
  4568  0490  0833               	movf	___flmul@b+3,w
  4569  0491  00B8               	movwf	??___flmul
  4570  0492  0738               	addwf	??___flmul,w
  4571  0493  00B9               	movwf	??___flmul+1
  4572  0494  0839               	movf	??___flmul+1,w
  4573  0495  00C3               	movwf	___flmul@bexp
  4574  0496                     l2162:	
  4575  0496  1FB2               	btfss	___flmul@b+2,7
  4576  0497  2C99               	goto	u2551
  4577  0498  2C9A               	goto	u2550
  4578  0499                     u2551:	
  4579  0499  2C9B               	goto	l2166
  4580  049A                     u2550:	
  4581  049A                     l2164:	
  4582  049A  1443               	bsf	___flmul@bexp,0
  4583  049B                     l2166:	
  4584  049B  0843               	movf	___flmul@bexp,w
  4585  049C  1903               	btfsc	3,2
  4586  049D  2C9F               	goto	u2561
  4587  049E  2CA0               	goto	u2560
  4588  049F                     u2561:	
  4589  049F  2CAF               	goto	l2174
  4590  04A0                     u2560:	
  4591  04A0                     l2168:	
  4592  04A0  0A43               	incf	___flmul@bexp,w
  4593  04A1  1D03               	btfss	3,2
  4594  04A2  2CA4               	goto	u2571
  4595  04A3  2CA5               	goto	u2570
  4596  04A4                     u2571:	
  4597  04A4  2CAD               	goto	l2172
  4598  04A5                     u2570:	
  4599  04A5                     l2170:	
  4600  04A5  3000               	movlw	0
  4601  04A6  00B3               	movwf	___flmul@b+3
  4602  04A7  3000               	movlw	0
  4603  04A8  00B2               	movwf	___flmul@b+2
  4604  04A9  3000               	movlw	0
  4605  04AA  00B1               	movwf	___flmul@b+1
  4606  04AB  3000               	movlw	0
  4607  04AC  00B0               	movwf	___flmul@b
  4608  04AD                     l2172:	
  4609  04AD  17B2               	bsf	___flmul@b+2,7
  4610  04AE  2CB7               	goto	l2176
  4611  04AF                     l2174:	
  4612  04AF  3000               	movlw	0
  4613  04B0  00B3               	movwf	___flmul@b+3
  4614  04B1  3000               	movlw	0
  4615  04B2  00B2               	movwf	___flmul@b+2
  4616  04B3  3000               	movlw	0
  4617  04B4  00B1               	movwf	___flmul@b+1
  4618  04B5  3000               	movlw	0
  4619  04B6  00B0               	movwf	___flmul@b
  4620  04B7                     l2176:	
  4621  04B7  0837               	movf	___flmul@a+3,w
  4622  04B8  3980               	andlw	128
  4623  04B9  00B8               	movwf	??___flmul
  4624  04BA  0838               	movf	??___flmul,w
  4625  04BB  06BD               	xorwf	___flmul@sign,f
  4626  04BC                     l2178:	
  4627  04BC  0837               	movf	___flmul@a+3,w
  4628  04BD  00B8               	movwf	??___flmul
  4629  04BE  0738               	addwf	??___flmul,w
  4630  04BF  00B9               	movwf	??___flmul+1
  4631  04C0  0839               	movf	??___flmul+1,w
  4632  04C1  00C2               	movwf	___flmul@aexp
  4633  04C2                     l2180:	
  4634  04C2  1FB6               	btfss	___flmul@a+2,7
  4635  04C3  2CC5               	goto	u2581
  4636  04C4  2CC6               	goto	u2580
  4637  04C5                     u2581:	
  4638  04C5  2CC7               	goto	l2184
  4639  04C6                     u2580:	
  4640  04C6                     l2182:	
  4641  04C6  1442               	bsf	___flmul@aexp,0
  4642  04C7                     l2184:	
  4643  04C7  0842               	movf	___flmul@aexp,w
  4644  04C8  1903               	btfsc	3,2
  4645  04C9  2CCB               	goto	u2591
  4646  04CA  2CCC               	goto	u2590
  4647  04CB                     u2591:	
  4648  04CB  2CDB               	goto	l2192
  4649  04CC                     u2590:	
  4650  04CC                     l2186:	
  4651  04CC  0A42               	incf	___flmul@aexp,w
  4652  04CD  1D03               	btfss	3,2
  4653  04CE  2CD0               	goto	u2601
  4654  04CF  2CD1               	goto	u2600
  4655  04D0                     u2601:	
  4656  04D0  2CD9               	goto	l2190
  4657  04D1                     u2600:	
  4658  04D1                     l2188:	
  4659  04D1  3000               	movlw	0
  4660  04D2  00B7               	movwf	___flmul@a+3
  4661  04D3  3000               	movlw	0
  4662  04D4  00B6               	movwf	___flmul@a+2
  4663  04D5  3000               	movlw	0
  4664  04D6  00B5               	movwf	___flmul@a+1
  4665  04D7  3000               	movlw	0
  4666  04D8  00B4               	movwf	___flmul@a
  4667  04D9                     l2190:	
  4668  04D9  17B6               	bsf	___flmul@a+2,7
  4669  04DA  2CE3               	goto	l2194
  4670  04DB                     l2192:	
  4671  04DB  3000               	movlw	0
  4672  04DC  00B7               	movwf	___flmul@a+3
  4673  04DD  3000               	movlw	0
  4674  04DE  00B6               	movwf	___flmul@a+2
  4675  04DF  3000               	movlw	0
  4676  04E0  00B5               	movwf	___flmul@a+1
  4677  04E1  3000               	movlw	0
  4678  04E2  00B4               	movwf	___flmul@a
  4679  04E3                     l2194:	
  4680  04E3  0842               	movf	___flmul@aexp,w
  4681  04E4  1903               	btfsc	3,2
  4682  04E5  2CE7               	goto	u2611
  4683  04E6  2CE8               	goto	u2610
  4684  04E7                     u2611:	
  4685  04E7  2CED               	goto	l2198
  4686  04E8                     u2610:	
  4687  04E8                     l2196:	
  4688  04E8  0843               	movf	___flmul@bexp,w
  4689  04E9  1D03               	btfss	3,2
  4690  04EA  2CEC               	goto	u2621
  4691  04EB  2CED               	goto	u2620
  4692  04EC                     u2621:	
  4693  04EC  2CF6               	goto	l2202
  4694  04ED                     u2620:	
  4695  04ED                     l2198:	
  4696  04ED  3000               	movlw	0
  4697  04EE  00B3               	movwf	?___flmul+3
  4698  04EF  3000               	movlw	0
  4699  04F0  00B2               	movwf	?___flmul+2
  4700  04F1  3000               	movlw	0
  4701  04F2  00B1               	movwf	?___flmul+1
  4702  04F3  3000               	movlw	0
  4703  04F4  00B0               	movwf	?___flmul
  4704  04F5  2FE9               	goto	l667
  4705  04F6                     l2202:	
  4706  04F6  0830               	movf	___flmul@b,w
  4707  04F7  00B8               	movwf	??___flmul
  4708  04F8  0838               	movf	??___flmul,w
  4709  04F9  00F0               	movwf	__Umul8_16@multiplicand
  4710  04FA  0836               	movf	___flmul@a+2,w
  4711  04FB  120A  158A  20A4  120A  118A  	fcall	__Umul8_16
  4712  0500  0871               	movf	?__Umul8_16+1,w
  4713  0501  1283               	bcf	3,5	;RP0=0, select bank0
  4714  0502  1303               	bcf	3,6	;RP1=0, select bank0
  4715  0503  00C9               	movwf	___flmul@temp+1
  4716  0504  0870               	movf	?__Umul8_16,w
  4717  0505  00C8               	movwf	___flmul@temp
  4718  0506                     l2204:	
  4719  0506  0848               	movf	___flmul@temp,w
  4720  0507  00B8               	movwf	??___flmul
  4721  0508  01B9               	clrf	??___flmul+1
  4722  0509  01BA               	clrf	??___flmul+2
  4723  050A  01BB               	clrf	??___flmul+3
  4724  050B  083B               	movf	??___flmul+3,w
  4725  050C  00C1               	movwf	___flmul@grs+3
  4726  050D  083A               	movf	??___flmul+2,w
  4727  050E  00C0               	movwf	___flmul@grs+2
  4728  050F  0839               	movf	??___flmul+1,w
  4729  0510  00BF               	movwf	___flmul@grs+1
  4730  0511  0838               	movf	??___flmul,w
  4731  0512  00BE               	movwf	___flmul@grs
  4732  0513                     l2206:	
  4733  0513  0849               	movf	___flmul@temp+1,w
  4734  0514  00B8               	movwf	??___flmul
  4735  0515  01B9               	clrf	??___flmul+1
  4736  0516  01BA               	clrf	??___flmul+2
  4737  0517  01BB               	clrf	??___flmul+3
  4738  0518  083B               	movf	??___flmul+3,w
  4739  0519  00C7               	movwf	___flmul@prod+3
  4740  051A  083A               	movf	??___flmul+2,w
  4741  051B  00C6               	movwf	___flmul@prod+2
  4742  051C  0839               	movf	??___flmul+1,w
  4743  051D  00C5               	movwf	___flmul@prod+1
  4744  051E  0838               	movf	??___flmul,w
  4745  051F  00C4               	movwf	___flmul@prod
  4746  0520  0831               	movf	___flmul@b+1,w
  4747  0521  00B8               	movwf	??___flmul
  4748  0522  0838               	movf	??___flmul,w
  4749  0523  00F0               	movwf	__Umul8_16@multiplicand
  4750  0524  0835               	movf	___flmul@a+1,w
  4751  0525  120A  158A  20A4  120A  118A  	fcall	__Umul8_16
  4752  052A  0871               	movf	?__Umul8_16+1,w
  4753  052B  1283               	bcf	3,5	;RP0=0, select bank0
  4754  052C  1303               	bcf	3,6	;RP1=0, select bank0
  4755  052D  00C9               	movwf	___flmul@temp+1
  4756  052E  0870               	movf	?__Umul8_16,w
  4757  052F  00C8               	movwf	___flmul@temp
  4758  0530                     l2208:	
  4759  0530  0848               	movf	___flmul@temp,w
  4760  0531  00B8               	movwf	??___flmul
  4761  0532  01B9               	clrf	??___flmul+1
  4762  0533  01BA               	clrf	??___flmul+2
  4763  0534  01BB               	clrf	??___flmul+3
  4764  0535  0838               	movf	??___flmul,w
  4765  0536  07BE               	addwf	___flmul@grs,f
  4766  0537  0839               	movf	??___flmul+1,w
  4767  0538  1103               	clrz
  4768  0539  1803               	skipnc
  4769  053A  3E01               	addlw	1
  4770  053B  1903               	skipnz
  4771  053C  2D3E               	goto	u2631
  4772  053D  07BF               	addwf	___flmul@grs+1,f
  4773  053E                     u2631:	
  4774  053E  083A               	movf	??___flmul+2,w
  4775  053F  1103               	clrz
  4776  0540  1803               	skipnc
  4777  0541  3E01               	addlw	1
  4778  0542  1903               	skipnz
  4779  0543  2D45               	goto	u2632
  4780  0544  07C0               	addwf	___flmul@grs+2,f
  4781  0545                     u2632:	
  4782  0545  083B               	movf	??___flmul+3,w
  4783  0546  1103               	clrz
  4784  0547  1803               	skipnc
  4785  0548  3E01               	addlw	1
  4786  0549  1903               	skipnz
  4787  054A  2D4C               	goto	u2633
  4788  054B  07C1               	addwf	___flmul@grs+3,f
  4789  054C                     u2633:	
  4790  054C                     l2210:	
  4791  054C  0849               	movf	___flmul@temp+1,w
  4792  054D  00B8               	movwf	??___flmul
  4793  054E  01B9               	clrf	??___flmul+1
  4794  054F  01BA               	clrf	??___flmul+2
  4795  0550  01BB               	clrf	??___flmul+3
  4796  0551  0838               	movf	??___flmul,w
  4797  0552  07C4               	addwf	___flmul@prod,f
  4798  0553  0839               	movf	??___flmul+1,w
  4799  0554  1103               	clrz
  4800  0555  1803               	skipnc
  4801  0556  3E01               	addlw	1
  4802  0557  1903               	skipnz
  4803  0558  2D5A               	goto	u2641
  4804  0559  07C5               	addwf	___flmul@prod+1,f
  4805  055A                     u2641:	
  4806  055A  083A               	movf	??___flmul+2,w
  4807  055B  1103               	clrz
  4808  055C  1803               	skipnc
  4809  055D  3E01               	addlw	1
  4810  055E  1903               	skipnz
  4811  055F  2D61               	goto	u2642
  4812  0560  07C6               	addwf	___flmul@prod+2,f
  4813  0561                     u2642:	
  4814  0561  083B               	movf	??___flmul+3,w
  4815  0562  1103               	clrz
  4816  0563  1803               	skipnc
  4817  0564  3E01               	addlw	1
  4818  0565  1903               	skipnz
  4819  0566  2D68               	goto	u2643
  4820  0567  07C7               	addwf	___flmul@prod+3,f
  4821  0568                     u2643:	
  4822  0568  0832               	movf	___flmul@b+2,w
  4823  0569  00B8               	movwf	??___flmul
  4824  056A  0838               	movf	??___flmul,w
  4825  056B  00F0               	movwf	__Umul8_16@multiplicand
  4826  056C  0834               	movf	___flmul@a,w
  4827  056D  120A  158A  20A4  120A  118A  	fcall	__Umul8_16
  4828  0572  0871               	movf	?__Umul8_16+1,w
  4829  0573  1283               	bcf	3,5	;RP0=0, select bank0
  4830  0574  1303               	bcf	3,6	;RP1=0, select bank0
  4831  0575  00C9               	movwf	___flmul@temp+1
  4832  0576  0870               	movf	?__Umul8_16,w
  4833  0577  00C8               	movwf	___flmul@temp
  4834  0578                     l2212:	
  4835  0578  0848               	movf	___flmul@temp,w
  4836  0579  00B8               	movwf	??___flmul
  4837  057A  01B9               	clrf	??___flmul+1
  4838  057B  01BA               	clrf	??___flmul+2
  4839  057C  01BB               	clrf	??___flmul+3
  4840  057D  0838               	movf	??___flmul,w
  4841  057E  07BE               	addwf	___flmul@grs,f
  4842  057F  0839               	movf	??___flmul+1,w
  4843  0580  1103               	clrz
  4844  0581  1803               	skipnc
  4845  0582  3E01               	addlw	1
  4846  0583  1903               	skipnz
  4847  0584  2D86               	goto	u2651
  4848  0585  07BF               	addwf	___flmul@grs+1,f
  4849  0586                     u2651:	
  4850  0586  083A               	movf	??___flmul+2,w
  4851  0587  1103               	clrz
  4852  0588  1803               	skipnc
  4853  0589  3E01               	addlw	1
  4854  058A  1903               	skipnz
  4855  058B  2D8D               	goto	u2652
  4856  058C  07C0               	addwf	___flmul@grs+2,f
  4857  058D                     u2652:	
  4858  058D  083B               	movf	??___flmul+3,w
  4859  058E  1103               	clrz
  4860  058F  1803               	skipnc
  4861  0590  3E01               	addlw	1
  4862  0591  1903               	skipnz
  4863  0592  2D94               	goto	u2653
  4864  0593  07C1               	addwf	___flmul@grs+3,f
  4865  0594                     u2653:	
  4866  0594                     l2214:	
  4867  0594  0849               	movf	___flmul@temp+1,w
  4868  0595  00B8               	movwf	??___flmul
  4869  0596  01B9               	clrf	??___flmul+1
  4870  0597  01BA               	clrf	??___flmul+2
  4871  0598  01BB               	clrf	??___flmul+3
  4872  0599  0838               	movf	??___flmul,w
  4873  059A  07C4               	addwf	___flmul@prod,f
  4874  059B  0839               	movf	??___flmul+1,w
  4875  059C  1103               	clrz
  4876  059D  1803               	skipnc
  4877  059E  3E01               	addlw	1
  4878  059F  1903               	skipnz
  4879  05A0  2DA2               	goto	u2661
  4880  05A1  07C5               	addwf	___flmul@prod+1,f
  4881  05A2                     u2661:	
  4882  05A2  083A               	movf	??___flmul+2,w
  4883  05A3  1103               	clrz
  4884  05A4  1803               	skipnc
  4885  05A5  3E01               	addlw	1
  4886  05A6  1903               	skipnz
  4887  05A7  2DA9               	goto	u2662
  4888  05A8  07C6               	addwf	___flmul@prod+2,f
  4889  05A9                     u2662:	
  4890  05A9  083B               	movf	??___flmul+3,w
  4891  05AA  1103               	clrz
  4892  05AB  1803               	skipnc
  4893  05AC  3E01               	addlw	1
  4894  05AD  1903               	skipnz
  4895  05AE  2DB0               	goto	u2663
  4896  05AF  07C7               	addwf	___flmul@prod+3,f
  4897  05B0                     u2663:	
  4898  05B0                     l2216:	
  4899  05B0  3008               	movlw	8
  4900  05B1  00B8               	movwf	??___flmul
  4901  05B2                     u2675:	
  4902  05B2  1003               	clrc
  4903  05B3  0DBE               	rlf	___flmul@grs,f
  4904  05B4  0DBF               	rlf	___flmul@grs+1,f
  4905  05B5  0DC0               	rlf	___flmul@grs+2,f
  4906  05B6  0DC1               	rlf	___flmul@grs+3,f
  4907  05B7  0BB8               	decfsz	??___flmul,f
  4908  05B8  2DB2               	goto	u2675
  4909  05B9                     l2218:	
  4910  05B9  0831               	movf	___flmul@b+1,w
  4911  05BA  00B8               	movwf	??___flmul
  4912  05BB  0838               	movf	??___flmul,w
  4913  05BC  00F0               	movwf	__Umul8_16@multiplicand
  4914  05BD  0834               	movf	___flmul@a,w
  4915  05BE  120A  158A  20A4  120A  118A  	fcall	__Umul8_16
  4916  05C3  0871               	movf	?__Umul8_16+1,w
  4917  05C4  1283               	bcf	3,5	;RP0=0, select bank0
  4918  05C5  1303               	bcf	3,6	;RP1=0, select bank0
  4919  05C6  00C9               	movwf	___flmul@temp+1
  4920  05C7  0870               	movf	?__Umul8_16,w
  4921  05C8  00C8               	movwf	___flmul@temp
  4922  05C9                     l2220:	
  4923  05C9  0848               	movf	___flmul@temp,w
  4924  05CA  00B8               	movwf	??___flmul
  4925  05CB  0849               	movf	___flmul@temp+1,w
  4926  05CC  00B9               	movwf	??___flmul+1
  4927  05CD  01BA               	clrf	??___flmul+2
  4928  05CE  01BB               	clrf	??___flmul+3
  4929  05CF  0838               	movf	??___flmul,w
  4930  05D0  07BE               	addwf	___flmul@grs,f
  4931  05D1  0839               	movf	??___flmul+1,w
  4932  05D2  1103               	clrz
  4933  05D3  1803               	skipnc
  4934  05D4  3E01               	addlw	1
  4935  05D5  1903               	skipnz
  4936  05D6  2DD8               	goto	u2681
  4937  05D7  07BF               	addwf	___flmul@grs+1,f
  4938  05D8                     u2681:	
  4939  05D8  083A               	movf	??___flmul+2,w
  4940  05D9  1103               	clrz
  4941  05DA  1803               	skipnc
  4942  05DB  3E01               	addlw	1
  4943  05DC  1903               	skipnz
  4944  05DD  2DDF               	goto	u2682
  4945  05DE  07C0               	addwf	___flmul@grs+2,f
  4946  05DF                     u2682:	
  4947  05DF  083B               	movf	??___flmul+3,w
  4948  05E0  1103               	clrz
  4949  05E1  1803               	skipnc
  4950  05E2  3E01               	addlw	1
  4951  05E3  1903               	skipnz
  4952  05E4  2DE6               	goto	u2683
  4953  05E5  07C1               	addwf	___flmul@grs+3,f
  4954  05E6                     u2683:	
  4955  05E6                     l2222:	
  4956  05E6  0830               	movf	___flmul@b,w
  4957  05E7  00B8               	movwf	??___flmul
  4958  05E8  0838               	movf	??___flmul,w
  4959  05E9  00F0               	movwf	__Umul8_16@multiplicand
  4960  05EA  0835               	movf	___flmul@a+1,w
  4961  05EB  120A  158A  20A4  120A  118A  	fcall	__Umul8_16
  4962  05F0  0871               	movf	?__Umul8_16+1,w
  4963  05F1  1283               	bcf	3,5	;RP0=0, select bank0
  4964  05F2  1303               	bcf	3,6	;RP1=0, select bank0
  4965  05F3  00C9               	movwf	___flmul@temp+1
  4966  05F4  0870               	movf	?__Umul8_16,w
  4967  05F5  00C8               	movwf	___flmul@temp
  4968  05F6                     l2224:	
  4969  05F6  0848               	movf	___flmul@temp,w
  4970  05F7  00B8               	movwf	??___flmul
  4971  05F8  0849               	movf	___flmul@temp+1,w
  4972  05F9  00B9               	movwf	??___flmul+1
  4973  05FA  01BA               	clrf	??___flmul+2
  4974  05FB  01BB               	clrf	??___flmul+3
  4975  05FC  0838               	movf	??___flmul,w
  4976  05FD  07BE               	addwf	___flmul@grs,f
  4977  05FE  0839               	movf	??___flmul+1,w
  4978  05FF  1103               	clrz
  4979  0600  1803               	skipnc
  4980  0601  3E01               	addlw	1
  4981  0602  1903               	skipnz
  4982  0603  2E05               	goto	u2691
  4983  0604  07BF               	addwf	___flmul@grs+1,f
  4984  0605                     u2691:	
  4985  0605  083A               	movf	??___flmul+2,w
  4986  0606  1103               	clrz
  4987  0607  1803               	skipnc
  4988  0608  3E01               	addlw	1
  4989  0609  1903               	skipnz
  4990  060A  2E0C               	goto	u2692
  4991  060B  07C0               	addwf	___flmul@grs+2,f
  4992  060C                     u2692:	
  4993  060C  083B               	movf	??___flmul+3,w
  4994  060D  1103               	clrz
  4995  060E  1803               	skipnc
  4996  060F  3E01               	addlw	1
  4997  0610  1903               	skipnz
  4998  0611  2E13               	goto	u2693
  4999  0612  07C1               	addwf	___flmul@grs+3,f
  5000  0613                     u2693:	
  5001  0613                     l2226:	
  5002  0613  3008               	movlw	8
  5003  0614  00B8               	movwf	??___flmul
  5004  0615                     u2705:	
  5005  0615  1003               	clrc
  5006  0616  0DBE               	rlf	___flmul@grs,f
  5007  0617  0DBF               	rlf	___flmul@grs+1,f
  5008  0618  0DC0               	rlf	___flmul@grs+2,f
  5009  0619  0DC1               	rlf	___flmul@grs+3,f
  5010  061A  0BB8               	decfsz	??___flmul,f
  5011  061B  2E15               	goto	u2705
  5012  061C  0830               	movf	___flmul@b,w
  5013  061D  00B8               	movwf	??___flmul
  5014  061E  0838               	movf	??___flmul,w
  5015  061F  00F0               	movwf	__Umul8_16@multiplicand
  5016  0620  0834               	movf	___flmul@a,w
  5017  0621  120A  158A  20A4  120A  118A  	fcall	__Umul8_16
  5018  0626  0871               	movf	?__Umul8_16+1,w
  5019  0627  1283               	bcf	3,5	;RP0=0, select bank0
  5020  0628  1303               	bcf	3,6	;RP1=0, select bank0
  5021  0629  00C9               	movwf	___flmul@temp+1
  5022  062A  0870               	movf	?__Umul8_16,w
  5023  062B  00C8               	movwf	___flmul@temp
  5024  062C                     l2228:	
  5025  062C  0848               	movf	___flmul@temp,w
  5026  062D  00B8               	movwf	??___flmul
  5027  062E  0849               	movf	___flmul@temp+1,w
  5028  062F  00B9               	movwf	??___flmul+1
  5029  0630  01BA               	clrf	??___flmul+2
  5030  0631  01BB               	clrf	??___flmul+3
  5031  0632  0838               	movf	??___flmul,w
  5032  0633  07BE               	addwf	___flmul@grs,f
  5033  0634  0839               	movf	??___flmul+1,w
  5034  0635  1103               	clrz
  5035  0636  1803               	skipnc
  5036  0637  3E01               	addlw	1
  5037  0638  1903               	skipnz
  5038  0639  2E3B               	goto	u2711
  5039  063A  07BF               	addwf	___flmul@grs+1,f
  5040  063B                     u2711:	
  5041  063B  083A               	movf	??___flmul+2,w
  5042  063C  1103               	clrz
  5043  063D  1803               	skipnc
  5044  063E  3E01               	addlw	1
  5045  063F  1903               	skipnz
  5046  0640  2E42               	goto	u2712
  5047  0641  07C0               	addwf	___flmul@grs+2,f
  5048  0642                     u2712:	
  5049  0642  083B               	movf	??___flmul+3,w
  5050  0643  1103               	clrz
  5051  0644  1803               	skipnc
  5052  0645  3E01               	addlw	1
  5053  0646  1903               	skipnz
  5054  0647  2E49               	goto	u2713
  5055  0648  07C1               	addwf	___flmul@grs+3,f
  5056  0649                     u2713:	
  5057  0649                     l2230:	
  5058  0649  0831               	movf	___flmul@b+1,w
  5059  064A  00B8               	movwf	??___flmul
  5060  064B  0838               	movf	??___flmul,w
  5061  064C  00F0               	movwf	__Umul8_16@multiplicand
  5062  064D  0836               	movf	___flmul@a+2,w
  5063  064E  120A  158A  20A4  120A  118A  	fcall	__Umul8_16
  5064  0653  0871               	movf	?__Umul8_16+1,w
  5065  0654  1283               	bcf	3,5	;RP0=0, select bank0
  5066  0655  1303               	bcf	3,6	;RP1=0, select bank0
  5067  0656  00C9               	movwf	___flmul@temp+1
  5068  0657  0870               	movf	?__Umul8_16,w
  5069  0658  00C8               	movwf	___flmul@temp
  5070  0659  0848               	movf	___flmul@temp,w
  5071  065A  00B8               	movwf	??___flmul
  5072  065B  0849               	movf	___flmul@temp+1,w
  5073  065C  00B9               	movwf	??___flmul+1
  5074  065D  01BA               	clrf	??___flmul+2
  5075  065E  01BB               	clrf	??___flmul+3
  5076  065F  0838               	movf	??___flmul,w
  5077  0660  07C4               	addwf	___flmul@prod,f
  5078  0661  0839               	movf	??___flmul+1,w
  5079  0662  1103               	clrz
  5080  0663  1803               	skipnc
  5081  0664  3E01               	addlw	1
  5082  0665  1903               	skipnz
  5083  0666  2E68               	goto	u2721
  5084  0667  07C5               	addwf	___flmul@prod+1,f
  5085  0668                     u2721:	
  5086  0668  083A               	movf	??___flmul+2,w
  5087  0669  1103               	clrz
  5088  066A  1803               	skipnc
  5089  066B  3E01               	addlw	1
  5090  066C  1903               	skipnz
  5091  066D  2E6F               	goto	u2722
  5092  066E  07C6               	addwf	___flmul@prod+2,f
  5093  066F                     u2722:	
  5094  066F  083B               	movf	??___flmul+3,w
  5095  0670  1103               	clrz
  5096  0671  1803               	skipnc
  5097  0672  3E01               	addlw	1
  5098  0673  1903               	skipnz
  5099  0674  2E76               	goto	u2723
  5100  0675  07C7               	addwf	___flmul@prod+3,f
  5101  0676                     u2723:	
  5102  0676                     l2232:	
  5103  0676  0832               	movf	___flmul@b+2,w
  5104  0677  00B8               	movwf	??___flmul
  5105  0678  0838               	movf	??___flmul,w
  5106  0679  00F0               	movwf	__Umul8_16@multiplicand
  5107  067A  0835               	movf	___flmul@a+1,w
  5108  067B  120A  158A  20A4  120A  118A  	fcall	__Umul8_16
  5109  0680  0871               	movf	?__Umul8_16+1,w
  5110  0681  1283               	bcf	3,5	;RP0=0, select bank0
  5111  0682  1303               	bcf	3,6	;RP1=0, select bank0
  5112  0683  00C9               	movwf	___flmul@temp+1
  5113  0684  0870               	movf	?__Umul8_16,w
  5114  0685  00C8               	movwf	___flmul@temp
  5115  0686                     l2234:	
  5116  0686  0848               	movf	___flmul@temp,w
  5117  0687  00B8               	movwf	??___flmul
  5118  0688  0849               	movf	___flmul@temp+1,w
  5119  0689  00B9               	movwf	??___flmul+1
  5120  068A  01BA               	clrf	??___flmul+2
  5121  068B  01BB               	clrf	??___flmul+3
  5122  068C  0838               	movf	??___flmul,w
  5123  068D  07C4               	addwf	___flmul@prod,f
  5124  068E  0839               	movf	??___flmul+1,w
  5125  068F  1103               	clrz
  5126  0690  1803               	skipnc
  5127  0691  3E01               	addlw	1
  5128  0692  1903               	skipnz
  5129  0693  2E95               	goto	u2731
  5130  0694  07C5               	addwf	___flmul@prod+1,f
  5131  0695                     u2731:	
  5132  0695  083A               	movf	??___flmul+2,w
  5133  0696  1103               	clrz
  5134  0697  1803               	skipnc
  5135  0698  3E01               	addlw	1
  5136  0699  1903               	skipnz
  5137  069A  2E9C               	goto	u2732
  5138  069B  07C6               	addwf	___flmul@prod+2,f
  5139  069C                     u2732:	
  5140  069C  083B               	movf	??___flmul+3,w
  5141  069D  1103               	clrz
  5142  069E  1803               	skipnc
  5143  069F  3E01               	addlw	1
  5144  06A0  1903               	skipnz
  5145  06A1  2EA3               	goto	u2733
  5146  06A2  07C7               	addwf	___flmul@prod+3,f
  5147  06A3                     u2733:	
  5148  06A3  0832               	movf	___flmul@b+2,w
  5149  06A4  00B8               	movwf	??___flmul
  5150  06A5  0838               	movf	??___flmul,w
  5151  06A6  00F0               	movwf	__Umul8_16@multiplicand
  5152  06A7  0836               	movf	___flmul@a+2,w
  5153  06A8  120A  158A  20A4  120A  118A  	fcall	__Umul8_16
  5154  06AD  0871               	movf	?__Umul8_16+1,w
  5155  06AE  1283               	bcf	3,5	;RP0=0, select bank0
  5156  06AF  1303               	bcf	3,6	;RP1=0, select bank0
  5157  06B0  00C9               	movwf	___flmul@temp+1
  5158  06B1  0870               	movf	?__Umul8_16,w
  5159  06B2  00C8               	movwf	___flmul@temp
  5160  06B3                     l2236:	
  5161  06B3  0848               	movf	___flmul@temp,w
  5162  06B4  00B8               	movwf	??___flmul
  5163  06B5  0849               	movf	___flmul@temp+1,w
  5164  06B6  00B9               	movwf	??___flmul+1
  5165  06B7  01BA               	clrf	??___flmul+2
  5166  06B8  01BB               	clrf	??___flmul+3
  5167  06B9  3008               	movlw	8
  5168  06BA                     u2745:	
  5169  06BA  1003               	clrc
  5170  06BB  0DB8               	rlf	??___flmul,f
  5171  06BC  0DB9               	rlf	??___flmul+1,f
  5172  06BD  0DBA               	rlf	??___flmul+2,f
  5173  06BE  0DBB               	rlf	??___flmul+3,f
  5174  06BF                     u2740:	
  5175  06BF  3EFF               	addlw	-1
  5176  06C0  1D03               	skipz
  5177  06C1  2EBA               	goto	u2745
  5178  06C2  0838               	movf	??___flmul,w
  5179  06C3  07C4               	addwf	___flmul@prod,f
  5180  06C4  0839               	movf	??___flmul+1,w
  5181  06C5  1103               	clrz
  5182  06C6  1803               	skipnc
  5183  06C7  3E01               	addlw	1
  5184  06C8  1903               	skipnz
  5185  06C9  2ECB               	goto	u2751
  5186  06CA  07C5               	addwf	___flmul@prod+1,f
  5187  06CB                     u2751:	
  5188  06CB  083A               	movf	??___flmul+2,w
  5189  06CC  1103               	clrz
  5190  06CD  1803               	skipnc
  5191  06CE  3E01               	addlw	1
  5192  06CF  1903               	skipnz
  5193  06D0  2ED2               	goto	u2752
  5194  06D1  07C6               	addwf	___flmul@prod+2,f
  5195  06D2                     u2752:	
  5196  06D2  083B               	movf	??___flmul+3,w
  5197  06D3  1103               	clrz
  5198  06D4  1803               	skipnc
  5199  06D5  3E01               	addlw	1
  5200  06D6  1903               	skipnz
  5201  06D7  2ED9               	goto	u2753
  5202  06D8  07C7               	addwf	___flmul@prod+3,f
  5203  06D9                     u2753:	
  5204  06D9                     l2238:	
  5205  06D9  083E               	movf	___flmul@grs,w
  5206  06DA  00B8               	movwf	??___flmul
  5207  06DB  083F               	movf	___flmul@grs+1,w
  5208  06DC  00B9               	movwf	??___flmul+1
  5209  06DD  0840               	movf	___flmul@grs+2,w
  5210  06DE  00BA               	movwf	??___flmul+2
  5211  06DF  0841               	movf	___flmul@grs+3,w
  5212  06E0  00BB               	movwf	??___flmul+3
  5213  06E1  3018               	movlw	24
  5214  06E2                     u2765:	
  5215  06E2  1003               	clrc
  5216  06E3  0CBB               	rrf	??___flmul+3,f
  5217  06E4  0CBA               	rrf	??___flmul+2,f
  5218  06E5  0CB9               	rrf	??___flmul+1,f
  5219  06E6  0CB8               	rrf	??___flmul,f
  5220  06E7                     u2760:	
  5221  06E7  3EFF               	addlw	-1
  5222  06E8  1D03               	skipz
  5223  06E9  2EE2               	goto	u2765
  5224  06EA  0838               	movf	??___flmul,w
  5225  06EB  07C4               	addwf	___flmul@prod,f
  5226  06EC  0839               	movf	??___flmul+1,w
  5227  06ED  1103               	clrz
  5228  06EE  1803               	skipnc
  5229  06EF  3E01               	addlw	1
  5230  06F0  1903               	skipnz
  5231  06F1  2EF3               	goto	u2771
  5232  06F2  07C5               	addwf	___flmul@prod+1,f
  5233  06F3                     u2771:	
  5234  06F3  083A               	movf	??___flmul+2,w
  5235  06F4  1103               	clrz
  5236  06F5  1803               	skipnc
  5237  06F6  3E01               	addlw	1
  5238  06F7  1903               	skipnz
  5239  06F8  2EFA               	goto	u2772
  5240  06F9  07C6               	addwf	___flmul@prod+2,f
  5241  06FA                     u2772:	
  5242  06FA  083B               	movf	??___flmul+3,w
  5243  06FB  1103               	clrz
  5244  06FC  1803               	skipnc
  5245  06FD  3E01               	addlw	1
  5246  06FE  1903               	skipnz
  5247  06FF  2F01               	goto	u2773
  5248  0700  07C7               	addwf	___flmul@prod+3,f
  5249  0701                     u2773:	
  5250  0701                     l2240:	
  5251  0701  3008               	movlw	8
  5252  0702  00B8               	movwf	??___flmul
  5253  0703                     u2785:	
  5254  0703  1003               	clrc
  5255  0704  0DBE               	rlf	___flmul@grs,f
  5256  0705  0DBF               	rlf	___flmul@grs+1,f
  5257  0706  0DC0               	rlf	___flmul@grs+2,f
  5258  0707  0DC1               	rlf	___flmul@grs+3,f
  5259  0708  0BB8               	decfsz	??___flmul,f
  5260  0709  2F03               	goto	u2785
  5261  070A                     l2242:	
  5262  070A  0843               	movf	___flmul@bexp,w
  5263  070B  0742               	addwf	___flmul@aexp,w
  5264  070C  00B8               	movwf	??___flmul
  5265  070D  01B9               	clrf	??___flmul+1
  5266  070E  0DB9               	rlf	??___flmul+1,f
  5267  070F  0838               	movf	??___flmul,w
  5268  0710  3E82               	addlw	130
  5269  0711  00C8               	movwf	___flmul@temp
  5270  0712  0839               	movf	??___flmul+1,w
  5271  0713  1803               	skipnc
  5272  0714  3E01               	addlw	1
  5273  0715  3EFF               	addlw	255
  5274  0716  00C9               	movwf	___flmul@temp+1
  5275  0717  2F35               	goto	l2254
  5276  0718                     l2244:	
  5277  0718  3001               	movlw	1
  5278  0719  00B8               	movwf	??___flmul
  5279  071A                     u2795:	
  5280  071A  1003               	clrc
  5281  071B  0DC4               	rlf	___flmul@prod,f
  5282  071C  0DC5               	rlf	___flmul@prod+1,f
  5283  071D  0DC6               	rlf	___flmul@prod+2,f
  5284  071E  0DC7               	rlf	___flmul@prod+3,f
  5285  071F  0BB8               	decfsz	??___flmul,f
  5286  0720  2F1A               	goto	u2795
  5287  0721                     l2246:	
  5288  0721  1FC1               	btfss	___flmul@grs+3,7
  5289  0722  2F24               	goto	u2801
  5290  0723  2F25               	goto	u2800
  5291  0724                     u2801:	
  5292  0724  2F26               	goto	l2250
  5293  0725                     u2800:	
  5294  0725                     l2248:	
  5295  0725  1444               	bsf	___flmul@prod,0
  5296  0726                     l2250:	
  5297  0726  3001               	movlw	1
  5298  0727  00B8               	movwf	??___flmul
  5299  0728                     u2815:	
  5300  0728  1003               	clrc
  5301  0729  0DBE               	rlf	___flmul@grs,f
  5302  072A  0DBF               	rlf	___flmul@grs+1,f
  5303  072B  0DC0               	rlf	___flmul@grs+2,f
  5304  072C  0DC1               	rlf	___flmul@grs+3,f
  5305  072D  0BB8               	decfsz	??___flmul,f
  5306  072E  2F28               	goto	u2815
  5307  072F                     l2252:	
  5308  072F  30FF               	movlw	255
  5309  0730  07C8               	addwf	___flmul@temp,f
  5310  0731  1803               	skipnc
  5311  0732  0AC9               	incf	___flmul@temp+1,f
  5312  0733  30FF               	movlw	255
  5313  0734  07C9               	addwf	___flmul@temp+1,f
  5314  0735                     l2254:	
  5315  0735  1FC6               	btfss	___flmul@prod+2,7
  5316  0736  2F38               	goto	u2821
  5317  0737  2F39               	goto	u2820
  5318  0738                     u2821:	
  5319  0738  2F18               	goto	l2244
  5320  0739                     u2820:	
  5321  0739                     l2256:	
  5322  0739  01C2               	clrf	___flmul@aexp
  5323  073A                     l2258:	
  5324  073A  1FC1               	btfss	___flmul@grs+3,7
  5325  073B  2F3D               	goto	u2831
  5326  073C  2F3E               	goto	u2830
  5327  073D                     u2831:	
  5328  073D  2F5A               	goto	l2266
  5329  073E                     u2830:	
  5330  073E                     l2260:	
  5331  073E  30FF               	movlw	255
  5332  073F  053E               	andwf	___flmul@grs,w
  5333  0740  00B8               	movwf	??___flmul
  5334  0741  30FF               	movlw	255
  5335  0742  053F               	andwf	___flmul@grs+1,w
  5336  0743  00B9               	movwf	??___flmul+1
  5337  0744  30FF               	movlw	255
  5338  0745  0540               	andwf	___flmul@grs+2,w
  5339  0746  00BA               	movwf	??___flmul+2
  5340  0747  307F               	movlw	127
  5341  0748  0541               	andwf	___flmul@grs+3,w
  5342  0749  00BB               	movwf	??___flmul+3
  5343  074A  083B               	movf	??___flmul+3,w
  5344  074B  043A               	iorwf	??___flmul+2,w
  5345  074C  0439               	iorwf	??___flmul+1,w
  5346  074D  0438               	iorwf	??___flmul,w
  5347  074E  1903               	skipnz
  5348  074F  2F51               	goto	u2841
  5349  0750  2F52               	goto	u2840
  5350  0751                     u2841:	
  5351  0751  2F55               	goto	l673
  5352  0752                     u2840:	
  5353  0752                     l2262:	
  5354  0752  01C2               	clrf	___flmul@aexp
  5355  0753  0AC2               	incf	___flmul@aexp,f
  5356  0754  2F5A               	goto	l2266
  5357  0755                     l673:	
  5358  0755  1C44               	btfss	___flmul@prod,0
  5359  0756  2F58               	goto	u2851
  5360  0757  2F59               	goto	u2850
  5361  0758                     u2851:	
  5362  0758  2F5A               	goto	l2266
  5363  0759                     u2850:	
  5364  0759  2F52               	goto	l2262
  5365  075A                     l2266:	
  5366  075A  0842               	movf	___flmul@aexp,w
  5367  075B  1903               	btfsc	3,2
  5368  075C  2F5E               	goto	u2861
  5369  075D  2F5F               	goto	u2860
  5370  075E                     u2861:	
  5371  075E  2F90               	goto	l2276
  5372  075F                     u2860:	
  5373  075F                     l2268:	
  5374  075F  3001               	movlw	1
  5375  0760  07C4               	addwf	___flmul@prod,f
  5376  0761  3000               	movlw	0
  5377  0762  1803               	skipnc
  5378  0763  3001               	movlw	1
  5379  0764  07C5               	addwf	___flmul@prod+1,f
  5380  0765  3000               	movlw	0
  5381  0766  1803               	skipnc
  5382  0767  3001               	movlw	1
  5383  0768  07C6               	addwf	___flmul@prod+2,f
  5384  0769  3000               	movlw	0
  5385  076A  1803               	skipnc
  5386  076B  3001               	movlw	1
  5387  076C  07C7               	addwf	___flmul@prod+3,f
  5388  076D                     l2270:	
  5389  076D  1C47               	btfss	___flmul@prod+3,0
  5390  076E  2F70               	goto	u2871
  5391  076F  2F71               	goto	u2870
  5392  0770                     u2871:	
  5393  0770  2F90               	goto	l2276
  5394  0771                     u2870:	
  5395  0771                     l2272:	
  5396  0771  0844               	movf	___flmul@prod,w
  5397  0772  00B8               	movwf	??___flmul
  5398  0773  0845               	movf	___flmul@prod+1,w
  5399  0774  00B9               	movwf	??___flmul+1
  5400  0775  0846               	movf	___flmul@prod+2,w
  5401  0776  00BA               	movwf	??___flmul+2
  5402  0777  0847               	movf	___flmul@prod+3,w
  5403  0778  00BB               	movwf	??___flmul+3
  5404  0779  3001               	movlw	1
  5405  077A  00BC               	movwf	??___flmul+4
  5406  077B                     u2885:	
  5407  077B  0D3B               	rlf	??___flmul+3,w
  5408  077C  0CBB               	rrf	??___flmul+3,f
  5409  077D  0CBA               	rrf	??___flmul+2,f
  5410  077E  0CB9               	rrf	??___flmul+1,f
  5411  077F  0CB8               	rrf	??___flmul,f
  5412  0780                     u2880:	
  5413  0780  0BBC               	decfsz	??___flmul+4,f
  5414  0781  2F7B               	goto	u2885
  5415  0782  083B               	movf	??___flmul+3,w
  5416  0783  00C7               	movwf	___flmul@prod+3
  5417  0784  083A               	movf	??___flmul+2,w
  5418  0785  00C6               	movwf	___flmul@prod+2
  5419  0786  0839               	movf	??___flmul+1,w
  5420  0787  00C5               	movwf	___flmul@prod+1
  5421  0788  0838               	movf	??___flmul,w
  5422  0789  00C4               	movwf	___flmul@prod
  5423  078A                     l2274:	
  5424  078A  3001               	movlw	1
  5425  078B  07C8               	addwf	___flmul@temp,f
  5426  078C  1803               	skipnc
  5427  078D  0AC9               	incf	___flmul@temp+1,f
  5428  078E  3000               	movlw	0
  5429  078F  07C9               	addwf	___flmul@temp+1,f
  5430  0790                     l2276:	
  5431  0790  0849               	movf	___flmul@temp+1,w
  5432  0791  3A80               	xorlw	128
  5433  0792  00FF               	movwf	btemp+1
  5434  0793  3080               	movlw	128
  5435  0794  027F               	subwf	btemp+1,w
  5436  0795  1D03               	skipz
  5437  0796  2F99               	goto	u2895
  5438  0797  30FF               	movlw	255
  5439  0798  0248               	subwf	___flmul@temp,w
  5440  0799                     u2895:	
  5441  0799  1C03               	skipc
  5442  079A  2F9C               	goto	u2891
  5443  079B  2F9D               	goto	u2890
  5444  079C                     u2891:	
  5445  079C  2FA8               	goto	l2280
  5446  079D                     u2890:	
  5447  079D                     l2278:	
  5448  079D  307F               	movlw	127
  5449  079E  1283               	bcf	3,5	;RP0=0, select bank0
  5450  079F  1303               	bcf	3,6	;RP1=0, select bank0
  5451  07A0  00C7               	movwf	___flmul@prod+3
  5452  07A1  3080               	movlw	128
  5453  07A2  00C6               	movwf	___flmul@prod+2
  5454  07A3  3000               	movlw	0
  5455  07A4  00C5               	movwf	___flmul@prod+1
  5456  07A5  3000               	movlw	0
  5457  07A6  00C4               	movwf	___flmul@prod
  5458  07A7  2FDD               	goto	l679
  5459  07A8                     l2280:	
  5460  07A8  1283               	bcf	3,5	;RP0=0, select bank0
  5461  07A9  1303               	bcf	3,6	;RP1=0, select bank0
  5462  07AA  0849               	movf	___flmul@temp+1,w
  5463  07AB  3A80               	xorlw	128
  5464  07AC  00FF               	movwf	btemp+1
  5465  07AD  3080               	movlw	128
  5466  07AE  027F               	subwf	btemp+1,w
  5467  07AF  1D03               	skipz
  5468  07B0  2FB3               	goto	u2905
  5469  07B1  3001               	movlw	1
  5470  07B2  0248               	subwf	___flmul@temp,w
  5471  07B3                     u2905:	
  5472  07B3  1803               	skipnc
  5473  07B4  2FB6               	goto	u2901
  5474  07B5  2FB7               	goto	u2900
  5475  07B6                     u2901:	
  5476  07B6  2FC3               	goto	l2286
  5477  07B7                     u2900:	
  5478  07B7                     l2282:	
  5479  07B7  3000               	movlw	0
  5480  07B8  1283               	bcf	3,5	;RP0=0, select bank0
  5481  07B9  1303               	bcf	3,6	;RP1=0, select bank0
  5482  07BA  00C7               	movwf	___flmul@prod+3
  5483  07BB  3000               	movlw	0
  5484  07BC  00C6               	movwf	___flmul@prod+2
  5485  07BD  3000               	movlw	0
  5486  07BE  00C5               	movwf	___flmul@prod+1
  5487  07BF  3000               	movlw	0
  5488  07C0  00C4               	movwf	___flmul@prod
  5489  07C1                     l2284:	
  5490  07C1  01BD               	clrf	___flmul@sign
  5491  07C2  2FDD               	goto	l679
  5492  07C3                     l2286:	
  5493  07C3  1283               	bcf	3,5	;RP0=0, select bank0
  5494  07C4  1303               	bcf	3,6	;RP1=0, select bank0
  5495  07C5  0848               	movf	___flmul@temp,w
  5496  07C6  00B8               	movwf	??___flmul
  5497  07C7  0838               	movf	??___flmul,w
  5498  07C8  00C3               	movwf	___flmul@bexp
  5499  07C9  30FF               	movlw	255
  5500  07CA  05C4               	andwf	___flmul@prod,f
  5501  07CB  30FF               	movlw	255
  5502  07CC  05C5               	andwf	___flmul@prod+1,f
  5503  07CD  307F               	movlw	127
  5504  07CE  05C6               	andwf	___flmul@prod+2,f
  5505  07CF  3000               	movlw	0
  5506  07D0  05C7               	andwf	___flmul@prod+3,f
  5507  07D1                     l2288:	
  5508  07D1  1C43               	btfss	___flmul@bexp,0
  5509  07D2  2FD4               	goto	u2911
  5510  07D3  2FD5               	goto	u2910
  5511  07D4                     u2911:	
  5512  07D4  2FD6               	goto	l2292
  5513  07D5                     u2910:	
  5514  07D5                     l2290:	
  5515  07D5  17C6               	bsf	___flmul@prod+2,7
  5516  07D6                     l2292:	
  5517  07D6  0843               	movf	___flmul@bexp,w
  5518  07D7  00B8               	movwf	??___flmul
  5519  07D8  1003               	clrc
  5520  07D9  0C38               	rrf	??___flmul,w
  5521  07DA  00B9               	movwf	??___flmul+1
  5522  07DB  0839               	movf	??___flmul+1,w
  5523  07DC  00C7               	movwf	___flmul@prod+3
  5524  07DD                     l679:	
  5525  07DD  083D               	movf	___flmul@sign,w
  5526  07DE  00B8               	movwf	??___flmul
  5527  07DF  0838               	movf	??___flmul,w
  5528  07E0  04C7               	iorwf	___flmul@prod+3,f
  5529  07E1                     l2294:	
  5530  07E1  0847               	movf	___flmul@prod+3,w
  5531  07E2  00B3               	movwf	?___flmul+3
  5532  07E3  0846               	movf	___flmul@prod+2,w
  5533  07E4  00B2               	movwf	?___flmul+2
  5534  07E5  0845               	movf	___flmul@prod+1,w
  5535  07E6  00B1               	movwf	?___flmul+1
  5536  07E7  0844               	movf	___flmul@prod,w
  5537  07E8  00B0               	movwf	?___flmul
  5538  07E9                     l667:	
  5539  07E9  0008               	return
  5540  07EA                     __end_of___flmul:	
  5541                           
  5542                           	psect	text18
  5543  08A4                     __ptext18:	
  5544 ;; *************** function __Umul8_16 *****************
  5545 ;; Defined at:
  5546 ;;		line 4 in file "C:\Program Files (x86)\Microchip\xc8\v2.10\pic\sources\c90\common\Umul8_16.c"
  5547 ;; Parameters:    Size  Location     Type
  5548 ;;  multiplier      1    wreg     unsigned char 
  5549 ;;  multiplicand    1    0[COMMON] unsigned char 
  5550 ;; Auto vars:     Size  Location     Type
  5551 ;;  multiplier      1    8[COMMON] unsigned char 
  5552 ;;  word_mpld       2    6[COMMON] unsigned int 
  5553 ;;  product         2    4[COMMON] unsigned int 
  5554 ;; Return value:  Size  Location     Type
  5555 ;;                  2    0[COMMON] unsigned int 
  5556 ;; Registers used:
  5557 ;;		wreg, status,2, status,0
  5558 ;; Tracked objects:
  5559 ;;		On entry : 0/0
  5560 ;;		On exit  : 0/0
  5561 ;;		Unchanged: 0/0
  5562 ;; Data sizes:     COMMON   BANK0   BANK1   BANK3   BANK2
  5563 ;;      Params:         2       0       0       0       0
  5564 ;;      Locals:         5       0       0       0       0
  5565 ;;      Temps:          2       0       0       0       0
  5566 ;;      Totals:         9       0       0       0       0
  5567 ;;Total ram usage:        9 bytes
  5568 ;; Hardware stack levels used:    1
  5569 ;; This function calls:
  5570 ;;		Nothing
  5571 ;; This function is called by:
  5572 ;;		___flmul
  5573 ;; This function uses a non-reentrant model
  5574 ;;
  5575                           
  5576                           
  5577                           ;psect for function __Umul8_16
  5578  08A4                     __Umul8_16:	
  5579                           
  5580                           ;incstack = 0
  5581                           ; Regs used in __Umul8_16: [wreg+status,2+status,0]
  5582                           ;__Umul8_16@multiplier stored from wreg
  5583  08A4  00F8               	movwf	__Umul8_16@multiplier
  5584  08A5                     l2040:	
  5585  08A5  01F4               	clrf	__Umul8_16@product
  5586  08A6  01F5               	clrf	__Umul8_16@product+1
  5587  08A7                     l2042:	
  5588  08A7  0870               	movf	__Umul8_16@multiplicand,w
  5589  08A8  00F2               	movwf	??__Umul8_16
  5590  08A9  01F3               	clrf	??__Umul8_16+1
  5591  08AA  0872               	movf	??__Umul8_16,w
  5592  08AB  00F6               	movwf	__Umul8_16@word_mpld
  5593  08AC  0873               	movf	??__Umul8_16+1,w
  5594  08AD  00F7               	movwf	__Umul8_16@word_mpld+1
  5595  08AE                     l2044:	
  5596  08AE  1C78               	btfss	__Umul8_16@multiplier,0
  5597  08AF  28B1               	goto	u2321
  5598  08B0  28B2               	goto	u2320
  5599  08B1                     u2321:	
  5600  08B1  28B8               	goto	l738
  5601  08B2                     u2320:	
  5602  08B2                     l2046:	
  5603  08B2  0876               	movf	__Umul8_16@word_mpld,w
  5604  08B3  07F4               	addwf	__Umul8_16@product,f
  5605  08B4  1803               	skipnc
  5606  08B5  0AF5               	incf	__Umul8_16@product+1,f
  5607  08B6  0877               	movf	__Umul8_16@word_mpld+1,w
  5608  08B7  07F5               	addwf	__Umul8_16@product+1,f
  5609  08B8                     l738:	
  5610  08B8  3001               	movlw	1
  5611  08B9                     u2335:	
  5612  08B9  1003               	clrc
  5613  08BA  0DF6               	rlf	__Umul8_16@word_mpld,f
  5614  08BB  0DF7               	rlf	__Umul8_16@word_mpld+1,f
  5615  08BC  3EFF               	addlw	-1
  5616  08BD  1D03               	skipz
  5617  08BE  28B9               	goto	u2335
  5618  08BF  1003               	clrc
  5619  08C0  0CF8               	rrf	__Umul8_16@multiplier,f
  5620  08C1                     l2048:	
  5621  08C1  0878               	movf	__Umul8_16@multiplier,w
  5622  08C2  1D03               	btfss	3,2
  5623  08C3  28C5               	goto	u2341
  5624  08C4  28C6               	goto	u2340
  5625  08C5                     u2341:	
  5626  08C5  28AE               	goto	l2044
  5627  08C6                     u2340:	
  5628  08C6                     l2050:	
  5629  08C6  0875               	movf	__Umul8_16@product+1,w
  5630  08C7  00F1               	movwf	?__Umul8_16+1
  5631  08C8  0874               	movf	__Umul8_16@product,w
  5632  08C9  00F0               	movwf	?__Umul8_16
  5633  08CA                     l740:	
  5634  08CA  0008               	return
  5635  08CB                     __end_of__Umul8_16:	
  5636                           
  5637                           	psect	text19
  5638  0B8B                     __ptext19:	
  5639 ;; *************** function ___fldiv *****************
  5640 ;; Defined at:
  5641 ;;		line 8 in file "C:\Program Files (x86)\Microchip\xc8\v2.10\pic\sources\c90\common\sprcdiv.c"
  5642 ;; Parameters:    Size  Location     Type
  5643 ;;  a               4   42[BANK0 ] unsigned int 
  5644 ;;  b               4   46[BANK0 ] unsigned int 
  5645 ;; Auto vars:     Size  Location     Type
  5646 ;;  grs             4   62[BANK0 ] unsigned long 
  5647 ;;  rem             4   55[BANK0 ] unsigned long 
  5648 ;;  new_exp         2   60[BANK0 ] int 
  5649 ;;  aexp            1   67[BANK0 ] unsigned char 
  5650 ;;  bexp            1   66[BANK0 ] unsigned char 
  5651 ;;  sign            1   59[BANK0 ] unsigned char 
  5652 ;; Return value:  Size  Location     Type
  5653 ;;                  4   42[BANK0 ] unsigned char 
  5654 ;; Registers used:
  5655 ;;		wreg, status,2, status,0, btemp+1
  5656 ;; Tracked objects:
  5657 ;;		On entry : 0/0
  5658 ;;		On exit  : 0/0
  5659 ;;		Unchanged: 0/0
  5660 ;; Data sizes:     COMMON   BANK0   BANK1   BANK3   BANK2
  5661 ;;      Params:         0       8       0       0       0
  5662 ;;      Locals:         0      13       0       0       0
  5663 ;;      Temps:          0       5       0       0       0
  5664 ;;      Totals:         0      26       0       0       0
  5665 ;;Total ram usage:       26 bytes
  5666 ;; Hardware stack levels used:    1
  5667 ;; This function calls:
  5668 ;;		Nothing
  5669 ;; This function is called by:
  5670 ;;		_main
  5671 ;; This function uses a non-reentrant model
  5672 ;;
  5673                           
  5674                           
  5675                           ;psect for function ___fldiv
  5676  0B8B                     ___fldiv:	
  5677  0B8B                     l2476:	
  5678                           ;incstack = 0
  5679                           ; Regs used in ___fldiv: [wreg+status,2+status,0+btemp+1]
  5680                           
  5681  0B8B  1283               	bcf	3,5	;RP0=0, select bank0
  5682  0B8C  1303               	bcf	3,6	;RP1=0, select bank0
  5683  0B8D  0851               	movf	___fldiv@b+3,w
  5684  0B8E  3980               	andlw	128
  5685  0B8F  00D2               	movwf	??___fldiv
  5686  0B90  0852               	movf	??___fldiv,w
  5687  0B91  00DB               	movwf	___fldiv@sign
  5688  0B92                     l2478:	
  5689  0B92  0851               	movf	___fldiv@b+3,w
  5690  0B93  00D2               	movwf	??___fldiv
  5691  0B94  0752               	addwf	??___fldiv,w
  5692  0B95  00D3               	movwf	??___fldiv+1
  5693  0B96  0853               	movf	??___fldiv+1,w
  5694  0B97  00E2               	movwf	___fldiv@bexp
  5695  0B98                     l2480:	
  5696  0B98  1FD0               	btfss	___fldiv@b+2,7
  5697  0B99  2B9B               	goto	u3141
  5698  0B9A  2B9C               	goto	u3140
  5699  0B9B                     u3141:	
  5700  0B9B  2B9D               	goto	l2484
  5701  0B9C                     u3140:	
  5702  0B9C                     l2482:	
  5703  0B9C  1462               	bsf	___fldiv@bexp,0
  5704  0B9D                     l2484:	
  5705  0B9D  0862               	movf	___fldiv@bexp,w
  5706  0B9E  1903               	btfsc	3,2
  5707  0B9F  2BA1               	goto	u3151
  5708  0BA0  2BA2               	goto	u3150
  5709  0BA1                     u3151:	
  5710  0BA1  2BB2               	goto	l2494
  5711  0BA2                     u3150:	
  5712  0BA2                     l2486:	
  5713  0BA2  0A62               	incf	___fldiv@bexp,w
  5714  0BA3  1D03               	btfss	3,2
  5715  0BA4  2BA6               	goto	u3161
  5716  0BA5  2BA7               	goto	u3160
  5717  0BA6                     u3161:	
  5718  0BA6  2BAF               	goto	l2490
  5719  0BA7                     u3160:	
  5720  0BA7                     l2488:	
  5721  0BA7  3000               	movlw	0
  5722  0BA8  00D1               	movwf	___fldiv@b+3
  5723  0BA9  3000               	movlw	0
  5724  0BAA  00D0               	movwf	___fldiv@b+2
  5725  0BAB  3000               	movlw	0
  5726  0BAC  00CF               	movwf	___fldiv@b+1
  5727  0BAD  3000               	movlw	0
  5728  0BAE  00CE               	movwf	___fldiv@b
  5729  0BAF                     l2490:	
  5730  0BAF  17D0               	bsf	___fldiv@b+2,7
  5731  0BB0                     l2492:	
  5732  0BB0  01D1               	clrf	___fldiv@b+3
  5733  0BB1  2BBA               	goto	l2496
  5734  0BB2                     l2494:	
  5735  0BB2  3000               	movlw	0
  5736  0BB3  00D1               	movwf	___fldiv@b+3
  5737  0BB4  3000               	movlw	0
  5738  0BB5  00D0               	movwf	___fldiv@b+2
  5739  0BB6  3000               	movlw	0
  5740  0BB7  00CF               	movwf	___fldiv@b+1
  5741  0BB8  3000               	movlw	0
  5742  0BB9  00CE               	movwf	___fldiv@b
  5743  0BBA                     l2496:	
  5744  0BBA  084D               	movf	___fldiv@a+3,w
  5745  0BBB  3980               	andlw	128
  5746  0BBC  00D2               	movwf	??___fldiv
  5747  0BBD  0852               	movf	??___fldiv,w
  5748  0BBE  06DB               	xorwf	___fldiv@sign,f
  5749  0BBF                     l2498:	
  5750  0BBF  084D               	movf	___fldiv@a+3,w
  5751  0BC0  00D2               	movwf	??___fldiv
  5752  0BC1  0752               	addwf	??___fldiv,w
  5753  0BC2  00D3               	movwf	??___fldiv+1
  5754  0BC3  0853               	movf	??___fldiv+1,w
  5755  0BC4  00E3               	movwf	___fldiv@aexp
  5756  0BC5                     l2500:	
  5757  0BC5  1FCC               	btfss	___fldiv@a+2,7
  5758  0BC6  2BC8               	goto	u3171
  5759  0BC7  2BC9               	goto	u3170
  5760  0BC8                     u3171:	
  5761  0BC8  2BCA               	goto	l2504
  5762  0BC9                     u3170:	
  5763  0BC9                     l2502:	
  5764  0BC9  1463               	bsf	___fldiv@aexp,0
  5765  0BCA                     l2504:	
  5766  0BCA  0863               	movf	___fldiv@aexp,w
  5767  0BCB  1903               	btfsc	3,2
  5768  0BCC  2BCE               	goto	u3181
  5769  0BCD  2BCF               	goto	u3180
  5770  0BCE                     u3181:	
  5771  0BCE  2BDF               	goto	l2514
  5772  0BCF                     u3180:	
  5773  0BCF                     l2506:	
  5774  0BCF  0A63               	incf	___fldiv@aexp,w
  5775  0BD0  1D03               	btfss	3,2
  5776  0BD1  2BD3               	goto	u3191
  5777  0BD2  2BD4               	goto	u3190
  5778  0BD3                     u3191:	
  5779  0BD3  2BDC               	goto	l2510
  5780  0BD4                     u3190:	
  5781  0BD4                     l2508:	
  5782  0BD4  3000               	movlw	0
  5783  0BD5  00CD               	movwf	___fldiv@a+3
  5784  0BD6  3000               	movlw	0
  5785  0BD7  00CC               	movwf	___fldiv@a+2
  5786  0BD8  3000               	movlw	0
  5787  0BD9  00CB               	movwf	___fldiv@a+1
  5788  0BDA  3000               	movlw	0
  5789  0BDB  00CA               	movwf	___fldiv@a
  5790  0BDC                     l2510:	
  5791  0BDC  17CC               	bsf	___fldiv@a+2,7
  5792  0BDD                     l2512:	
  5793  0BDD  01CD               	clrf	___fldiv@a+3
  5794  0BDE  2BE7               	goto	l627
  5795  0BDF                     l2514:	
  5796  0BDF  3000               	movlw	0
  5797  0BE0  00CD               	movwf	___fldiv@a+3
  5798  0BE1  3000               	movlw	0
  5799  0BE2  00CC               	movwf	___fldiv@a+2
  5800  0BE3  3000               	movlw	0
  5801  0BE4  00CB               	movwf	___fldiv@a+1
  5802  0BE5  3000               	movlw	0
  5803  0BE6  00CA               	movwf	___fldiv@a
  5804  0BE7                     l627:	
  5805  0BE7  084D               	movf	___fldiv@a+3,w
  5806  0BE8  044C               	iorwf	___fldiv@a+2,w
  5807  0BE9  044B               	iorwf	___fldiv@a+1,w
  5808  0BEA  044A               	iorwf	___fldiv@a,w
  5809  0BEB  1D03               	skipz
  5810  0BEC  2BEE               	goto	u3201
  5811  0BED  2BEF               	goto	u3200
  5812  0BEE                     u3201:	
  5813  0BEE  2C08               	goto	l2524
  5814  0BEF                     u3200:	
  5815  0BEF                     l2516:	
  5816  0BEF  3000               	movlw	0
  5817  0BF0  00D1               	movwf	___fldiv@b+3
  5818  0BF1  3000               	movlw	0
  5819  0BF2  00D0               	movwf	___fldiv@b+2
  5820  0BF3  3000               	movlw	0
  5821  0BF4  00CF               	movwf	___fldiv@b+1
  5822  0BF5  3000               	movlw	0
  5823  0BF6  00CE               	movwf	___fldiv@b
  5824  0BF7  3080               	movlw	128
  5825  0BF8  04D0               	iorwf	___fldiv@b+2,f
  5826  0BF9  307F               	movlw	127
  5827  0BFA  04D1               	iorwf	___fldiv@b+3,f
  5828  0BFB                     l2518:	
  5829  0BFB  085B               	movf	___fldiv@sign,w
  5830  0BFC  00D2               	movwf	??___fldiv
  5831  0BFD  0852               	movf	??___fldiv,w
  5832  0BFE  04D1               	iorwf	___fldiv@b+3,f
  5833  0BFF                     l2520:	
  5834  0BFF  0851               	movf	___fldiv@b+3,w
  5835  0C00  00CD               	movwf	?___fldiv+3
  5836  0C01  0850               	movf	___fldiv@b+2,w
  5837  0C02  00CC               	movwf	?___fldiv+2
  5838  0C03  084F               	movf	___fldiv@b+1,w
  5839  0C04  00CB               	movwf	?___fldiv+1
  5840  0C05  084E               	movf	___fldiv@b,w
  5841  0C06  00CA               	movwf	?___fldiv
  5842  0C07  2D67               	goto	l629
  5843  0C08                     l2524:	
  5844  0C08  0862               	movf	___fldiv@bexp,w
  5845  0C09  1D03               	btfss	3,2
  5846  0C0A  2C0C               	goto	u3211
  5847  0C0B  2C0D               	goto	u3210
  5848  0C0C                     u3211:	
  5849  0C0C  2C16               	goto	l2530
  5850  0C0D                     u3210:	
  5851  0C0D                     l2526:	
  5852  0C0D  3000               	movlw	0
  5853  0C0E  00CD               	movwf	?___fldiv+3
  5854  0C0F  3000               	movlw	0
  5855  0C10  00CC               	movwf	?___fldiv+2
  5856  0C11  3000               	movlw	0
  5857  0C12  00CB               	movwf	?___fldiv+1
  5858  0C13  3000               	movlw	0
  5859  0C14  00CA               	movwf	?___fldiv
  5860  0C15  2D67               	goto	l629
  5861  0C16                     l2530:	
  5862  0C16  0862               	movf	___fldiv@bexp,w
  5863  0C17  00D2               	movwf	??___fldiv
  5864  0C18  01D3               	clrf	??___fldiv+1
  5865  0C19  0853               	movf	??___fldiv+1,w
  5866  0C1A  00D5               	movwf	??___fldiv+3
  5867  0C1B  0863               	movf	___fldiv@aexp,w
  5868  0C1C  0252               	subwf	??___fldiv,w
  5869  0C1D  00D4               	movwf	??___fldiv+2
  5870  0C1E  1C03               	skipc
  5871  0C1F  03D5               	decf	??___fldiv+3,f
  5872  0C20  0854               	movf	??___fldiv+2,w
  5873  0C21  3E7F               	addlw	127
  5874  0C22  00DC               	movwf	___fldiv@new_exp
  5875  0C23  0855               	movf	??___fldiv+3,w
  5876  0C24  1803               	skipnc
  5877  0C25  3E01               	addlw	1
  5878  0C26  3E00               	addlw	0
  5879  0C27  00DD               	movwf	___fldiv@new_exp+1
  5880  0C28                     l2532:	
  5881  0C28  0851               	movf	___fldiv@b+3,w
  5882  0C29  00DA               	movwf	___fldiv@rem+3
  5883  0C2A  0850               	movf	___fldiv@b+2,w
  5884  0C2B  00D9               	movwf	___fldiv@rem+2
  5885  0C2C  084F               	movf	___fldiv@b+1,w
  5886  0C2D  00D8               	movwf	___fldiv@rem+1
  5887  0C2E  084E               	movf	___fldiv@b,w
  5888  0C2F  00D7               	movwf	___fldiv@rem
  5889  0C30                     l2534:	
  5890  0C30  3000               	movlw	0
  5891  0C31  00D1               	movwf	___fldiv@b+3
  5892  0C32  3000               	movlw	0
  5893  0C33  00D0               	movwf	___fldiv@b+2
  5894  0C34  3000               	movlw	0
  5895  0C35  00CF               	movwf	___fldiv@b+1
  5896  0C36  3000               	movlw	0
  5897  0C37  00CE               	movwf	___fldiv@b
  5898  0C38                     l2536:	
  5899  0C38  3000               	movlw	0
  5900  0C39  00E1               	movwf	___fldiv@grs+3
  5901  0C3A  3000               	movlw	0
  5902  0C3B  00E0               	movwf	___fldiv@grs+2
  5903  0C3C  3000               	movlw	0
  5904  0C3D  00DF               	movwf	___fldiv@grs+1
  5905  0C3E  3000               	movlw	0
  5906  0C3F  00DE               	movwf	___fldiv@grs
  5907  0C40                     l2538:	
  5908  0C40  01E3               	clrf	___fldiv@aexp
  5909  0C41  2C8C               	goto	l2558
  5910  0C42                     l2540:	
  5911  0C42  0863               	movf	___fldiv@aexp,w
  5912  0C43  1903               	btfsc	3,2
  5913  0C44  2C46               	goto	u3221
  5914  0C45  2C47               	goto	u3220
  5915  0C46                     u3221:	
  5916  0C46  2C67               	goto	l2550
  5917  0C47                     u3220:	
  5918  0C47                     l2542:	
  5919  0C47  3001               	movlw	1
  5920  0C48  00D2               	movwf	??___fldiv
  5921  0C49                     u3235:	
  5922  0C49  1003               	clrc
  5923  0C4A  0DD7               	rlf	___fldiv@rem,f
  5924  0C4B  0DD8               	rlf	___fldiv@rem+1,f
  5925  0C4C  0DD9               	rlf	___fldiv@rem+2,f
  5926  0C4D  0DDA               	rlf	___fldiv@rem+3,f
  5927  0C4E  0BD2               	decfsz	??___fldiv,f
  5928  0C4F  2C49               	goto	u3235
  5929  0C50  3001               	movlw	1
  5930  0C51  00D2               	movwf	??___fldiv
  5931  0C52                     u3245:	
  5932  0C52  1003               	clrc
  5933  0C53  0DCE               	rlf	___fldiv@b,f
  5934  0C54  0DCF               	rlf	___fldiv@b+1,f
  5935  0C55  0DD0               	rlf	___fldiv@b+2,f
  5936  0C56  0DD1               	rlf	___fldiv@b+3,f
  5937  0C57  0BD2               	decfsz	??___fldiv,f
  5938  0C58  2C52               	goto	u3245
  5939  0C59                     l2544:	
  5940  0C59  1FE1               	btfss	___fldiv@grs+3,7
  5941  0C5A  2C5C               	goto	u3251
  5942  0C5B  2C5D               	goto	u3250
  5943  0C5C                     u3251:	
  5944  0C5C  2C5E               	goto	l2548
  5945  0C5D                     u3250:	
  5946  0C5D                     l2546:	
  5947  0C5D  144E               	bsf	___fldiv@b,0
  5948  0C5E                     l2548:	
  5949  0C5E  3001               	movlw	1
  5950  0C5F  00D2               	movwf	??___fldiv
  5951  0C60                     u3265:	
  5952  0C60  1003               	clrc
  5953  0C61  0DDE               	rlf	___fldiv@grs,f
  5954  0C62  0DDF               	rlf	___fldiv@grs+1,f
  5955  0C63  0DE0               	rlf	___fldiv@grs+2,f
  5956  0C64  0DE1               	rlf	___fldiv@grs+3,f
  5957  0C65  0BD2               	decfsz	??___fldiv,f
  5958  0C66  2C60               	goto	u3265
  5959  0C67                     l2550:	
  5960  0C67  084D               	movf	___fldiv@a+3,w
  5961  0C68  025A               	subwf	___fldiv@rem+3,w
  5962  0C69  1D03               	skipz
  5963  0C6A  2C75               	goto	u3275
  5964  0C6B  084C               	movf	___fldiv@a+2,w
  5965  0C6C  0259               	subwf	___fldiv@rem+2,w
  5966  0C6D  1D03               	skipz
  5967  0C6E  2C75               	goto	u3275
  5968  0C6F  084B               	movf	___fldiv@a+1,w
  5969  0C70  0258               	subwf	___fldiv@rem+1,w
  5970  0C71  1D03               	skipz
  5971  0C72  2C75               	goto	u3275
  5972  0C73  084A               	movf	___fldiv@a,w
  5973  0C74  0257               	subwf	___fldiv@rem,w
  5974  0C75                     u3275:	
  5975  0C75  1C03               	skipc
  5976  0C76  2C78               	goto	u3271
  5977  0C77  2C79               	goto	u3270
  5978  0C78                     u3271:	
  5979  0C78  2C88               	goto	l2556
  5980  0C79                     u3270:	
  5981  0C79                     l2552:	
  5982  0C79  1761               	bsf	___fldiv@grs+3,6
  5983  0C7A                     l2554:	
  5984  0C7A  084A               	movf	___fldiv@a,w
  5985  0C7B  02D7               	subwf	___fldiv@rem,f
  5986  0C7C  084B               	movf	___fldiv@a+1,w
  5987  0C7D  1C03               	skipc
  5988  0C7E  0F4B               	incfsz	___fldiv@a+1,w
  5989  0C7F  02D8               	subwf	___fldiv@rem+1,f
  5990  0C80  084C               	movf	___fldiv@a+2,w
  5991  0C81  1C03               	skipc
  5992  0C82  0F4C               	incfsz	___fldiv@a+2,w
  5993  0C83  02D9               	subwf	___fldiv@rem+2,f
  5994  0C84  084D               	movf	___fldiv@a+3,w
  5995  0C85  1C03               	skipc
  5996  0C86  0F4D               	incfsz	___fldiv@a+3,w
  5997  0C87  02DA               	subwf	___fldiv@rem+3,f
  5998  0C88                     l2556:	
  5999  0C88  3001               	movlw	1
  6000  0C89  00D2               	movwf	??___fldiv
  6001  0C8A  0852               	movf	??___fldiv,w
  6002  0C8B  07E3               	addwf	___fldiv@aexp,f
  6003  0C8C                     l2558:	
  6004  0C8C  301A               	movlw	26
  6005  0C8D  0263               	subwf	___fldiv@aexp,w
  6006  0C8E  1C03               	skipc
  6007  0C8F  2C91               	goto	u3281
  6008  0C90  2C92               	goto	u3280
  6009  0C91                     u3281:	
  6010  0C91  2C42               	goto	l2540
  6011  0C92                     u3280:	
  6012  0C92                     l2560:	
  6013  0C92  085A               	movf	___fldiv@rem+3,w
  6014  0C93  0459               	iorwf	___fldiv@rem+2,w
  6015  0C94  0458               	iorwf	___fldiv@rem+1,w
  6016  0C95  0457               	iorwf	___fldiv@rem,w
  6017  0C96  1903               	skipnz
  6018  0C97  2C99               	goto	u3291
  6019  0C98  2C9A               	goto	u3290
  6020  0C99                     u3291:	
  6021  0C99  2CB9               	goto	l2574
  6022  0C9A                     u3290:	
  6023  0C9A                     l2562:	
  6024  0C9A  145E               	bsf	___fldiv@grs,0
  6025  0C9B  2CB9               	goto	l2574
  6026  0C9C                     l2564:	
  6027  0C9C  3001               	movlw	1
  6028  0C9D  00D2               	movwf	??___fldiv
  6029  0C9E                     u3305:	
  6030  0C9E  1003               	clrc
  6031  0C9F  0DCE               	rlf	___fldiv@b,f
  6032  0CA0  0DCF               	rlf	___fldiv@b+1,f
  6033  0CA1  0DD0               	rlf	___fldiv@b+2,f
  6034  0CA2  0DD1               	rlf	___fldiv@b+3,f
  6035  0CA3  0BD2               	decfsz	??___fldiv,f
  6036  0CA4  2C9E               	goto	u3305
  6037  0CA5                     l2566:	
  6038  0CA5  1FE1               	btfss	___fldiv@grs+3,7
  6039  0CA6  2CA8               	goto	u3311
  6040  0CA7  2CA9               	goto	u3310
  6041  0CA8                     u3311:	
  6042  0CA8  2CAA               	goto	l2570
  6043  0CA9                     u3310:	
  6044  0CA9                     l2568:	
  6045  0CA9  144E               	bsf	___fldiv@b,0
  6046  0CAA                     l2570:	
  6047  0CAA  3001               	movlw	1
  6048  0CAB  00D2               	movwf	??___fldiv
  6049  0CAC                     u3325:	
  6050  0CAC  1003               	clrc
  6051  0CAD  0DDE               	rlf	___fldiv@grs,f
  6052  0CAE  0DDF               	rlf	___fldiv@grs+1,f
  6053  0CAF  0DE0               	rlf	___fldiv@grs+2,f
  6054  0CB0  0DE1               	rlf	___fldiv@grs+3,f
  6055  0CB1  0BD2               	decfsz	??___fldiv,f
  6056  0CB2  2CAC               	goto	u3325
  6057  0CB3                     l2572:	
  6058  0CB3  30FF               	movlw	255
  6059  0CB4  07DC               	addwf	___fldiv@new_exp,f
  6060  0CB5  1803               	skipnc
  6061  0CB6  0ADD               	incf	___fldiv@new_exp+1,f
  6062  0CB7  30FF               	movlw	255
  6063  0CB8  07DD               	addwf	___fldiv@new_exp+1,f
  6064  0CB9                     l2574:	
  6065  0CB9  1FD0               	btfss	___fldiv@b+2,7
  6066  0CBA  2CBC               	goto	u3331
  6067  0CBB  2CBD               	goto	u3330
  6068  0CBC                     u3331:	
  6069  0CBC  2C9C               	goto	l2564
  6070  0CBD                     u3330:	
  6071  0CBD                     l2576:	
  6072  0CBD  01E3               	clrf	___fldiv@aexp
  6073  0CBE                     l2578:	
  6074  0CBE  1FE1               	btfss	___fldiv@grs+3,7
  6075  0CBF  2CC1               	goto	u3341
  6076  0CC0  2CC2               	goto	u3340
  6077  0CC1                     u3341:	
  6078  0CC1  2CDE               	goto	l2586
  6079  0CC2                     u3340:	
  6080  0CC2                     l2580:	
  6081  0CC2  30FF               	movlw	255
  6082  0CC3  055E               	andwf	___fldiv@grs,w
  6083  0CC4  00D2               	movwf	??___fldiv
  6084  0CC5  30FF               	movlw	255
  6085  0CC6  055F               	andwf	___fldiv@grs+1,w
  6086  0CC7  00D3               	movwf	??___fldiv+1
  6087  0CC8  30FF               	movlw	255
  6088  0CC9  0560               	andwf	___fldiv@grs+2,w
  6089  0CCA  00D4               	movwf	??___fldiv+2
  6090  0CCB  307F               	movlw	127
  6091  0CCC  0561               	andwf	___fldiv@grs+3,w
  6092  0CCD  00D5               	movwf	??___fldiv+3
  6093  0CCE  0855               	movf	??___fldiv+3,w
  6094  0CCF  0454               	iorwf	??___fldiv+2,w
  6095  0CD0  0453               	iorwf	??___fldiv+1,w
  6096  0CD1  0452               	iorwf	??___fldiv,w
  6097  0CD2  1903               	skipnz
  6098  0CD3  2CD5               	goto	u3351
  6099  0CD4  2CD6               	goto	u3350
  6100  0CD5                     u3351:	
  6101  0CD5  2CD9               	goto	l643
  6102  0CD6                     u3350:	
  6103  0CD6                     l2582:	
  6104  0CD6  01E3               	clrf	___fldiv@aexp
  6105  0CD7  0AE3               	incf	___fldiv@aexp,f
  6106  0CD8  2CDE               	goto	l2586
  6107  0CD9                     l643:	
  6108  0CD9  1C4E               	btfss	___fldiv@b,0
  6109  0CDA  2CDC               	goto	u3361
  6110  0CDB  2CDD               	goto	u3360
  6111  0CDC                     u3361:	
  6112  0CDC  2CDE               	goto	l2586
  6113  0CDD                     u3360:	
  6114  0CDD  2CD6               	goto	l2582
  6115  0CDE                     l2586:	
  6116  0CDE  0863               	movf	___fldiv@aexp,w
  6117  0CDF  1903               	btfsc	3,2
  6118  0CE0  2CE2               	goto	u3371
  6119  0CE1  2CE3               	goto	u3370
  6120  0CE2                     u3371:	
  6121  0CE2  2D14               	goto	l2596
  6122  0CE3                     u3370:	
  6123  0CE3                     l2588:	
  6124  0CE3  3001               	movlw	1
  6125  0CE4  07CE               	addwf	___fldiv@b,f
  6126  0CE5  3000               	movlw	0
  6127  0CE6  1803               	skipnc
  6128  0CE7  3001               	movlw	1
  6129  0CE8  07CF               	addwf	___fldiv@b+1,f
  6130  0CE9  3000               	movlw	0
  6131  0CEA  1803               	skipnc
  6132  0CEB  3001               	movlw	1
  6133  0CEC  07D0               	addwf	___fldiv@b+2,f
  6134  0CED  3000               	movlw	0
  6135  0CEE  1803               	skipnc
  6136  0CEF  3001               	movlw	1
  6137  0CF0  07D1               	addwf	___fldiv@b+3,f
  6138  0CF1                     l2590:	
  6139  0CF1  1C51               	btfss	___fldiv@b+3,0
  6140  0CF2  2CF4               	goto	u3381
  6141  0CF3  2CF5               	goto	u3380
  6142  0CF4                     u3381:	
  6143  0CF4  2D14               	goto	l2596
  6144  0CF5                     u3380:	
  6145  0CF5                     l2592:	
  6146  0CF5  084E               	movf	___fldiv@b,w
  6147  0CF6  00D2               	movwf	??___fldiv
  6148  0CF7  084F               	movf	___fldiv@b+1,w
  6149  0CF8  00D3               	movwf	??___fldiv+1
  6150  0CF9  0850               	movf	___fldiv@b+2,w
  6151  0CFA  00D4               	movwf	??___fldiv+2
  6152  0CFB  0851               	movf	___fldiv@b+3,w
  6153  0CFC  00D5               	movwf	??___fldiv+3
  6154  0CFD  3001               	movlw	1
  6155  0CFE  00D6               	movwf	??___fldiv+4
  6156  0CFF                     u3395:	
  6157  0CFF  0D55               	rlf	??___fldiv+3,w
  6158  0D00  0CD5               	rrf	??___fldiv+3,f
  6159  0D01  0CD4               	rrf	??___fldiv+2,f
  6160  0D02  0CD3               	rrf	??___fldiv+1,f
  6161  0D03  0CD2               	rrf	??___fldiv,f
  6162  0D04                     u3390:	
  6163  0D04  0BD6               	decfsz	??___fldiv+4,f
  6164  0D05  2CFF               	goto	u3395
  6165  0D06  0855               	movf	??___fldiv+3,w
  6166  0D07  00D1               	movwf	___fldiv@b+3
  6167  0D08  0854               	movf	??___fldiv+2,w
  6168  0D09  00D0               	movwf	___fldiv@b+2
  6169  0D0A  0853               	movf	??___fldiv+1,w
  6170  0D0B  00CF               	movwf	___fldiv@b+1
  6171  0D0C  0852               	movf	??___fldiv,w
  6172  0D0D  00CE               	movwf	___fldiv@b
  6173  0D0E                     l2594:	
  6174  0D0E  3001               	movlw	1
  6175  0D0F  07DC               	addwf	___fldiv@new_exp,f
  6176  0D10  1803               	skipnc
  6177  0D11  0ADD               	incf	___fldiv@new_exp+1,f
  6178  0D12  3000               	movlw	0
  6179  0D13  07DD               	addwf	___fldiv@new_exp+1,f
  6180  0D14                     l2596:	
  6181  0D14  085D               	movf	___fldiv@new_exp+1,w
  6182  0D15  3A80               	xorlw	128
  6183  0D16  00FF               	movwf	btemp+1
  6184  0D17  3080               	movlw	128
  6185  0D18  027F               	subwf	btemp+1,w
  6186  0D19  1D03               	skipz
  6187  0D1A  2D1D               	goto	u3405
  6188  0D1B  30FF               	movlw	255
  6189  0D1C  025C               	subwf	___fldiv@new_exp,w
  6190  0D1D                     u3405:	
  6191  0D1D  1C03               	skipc
  6192  0D1E  2D20               	goto	u3401
  6193  0D1F  2D21               	goto	u3400
  6194  0D20                     u3401:	
  6195  0D20  2D2F               	goto	l2600
  6196  0D21                     u3400:	
  6197  0D21                     l2598:	
  6198  0D21  30FF               	movlw	255
  6199  0D22  1283               	bcf	3,5	;RP0=0, select bank0
  6200  0D23  1303               	bcf	3,6	;RP1=0, select bank0
  6201  0D24  00DC               	movwf	___fldiv@new_exp
  6202  0D25  3000               	movlw	0
  6203  0D26  00DD               	movwf	___fldiv@new_exp+1
  6204  0D27  3000               	movlw	0
  6205  0D28  00D1               	movwf	___fldiv@b+3
  6206  0D29  3000               	movlw	0
  6207  0D2A  00D0               	movwf	___fldiv@b+2
  6208  0D2B  3000               	movlw	0
  6209  0D2C  00CF               	movwf	___fldiv@b+1
  6210  0D2D  3000               	movlw	0
  6211  0D2E  00CE               	movwf	___fldiv@b
  6212  0D2F                     l2600:	
  6213  0D2F  1283               	bcf	3,5	;RP0=0, select bank0
  6214  0D30  1303               	bcf	3,6	;RP1=0, select bank0
  6215  0D31  085D               	movf	___fldiv@new_exp+1,w
  6216  0D32  3A80               	xorlw	128
  6217  0D33  00FF               	movwf	btemp+1
  6218  0D34  3080               	movlw	128
  6219  0D35  027F               	subwf	btemp+1,w
  6220  0D36  1D03               	skipz
  6221  0D37  2D3A               	goto	u3415
  6222  0D38  3001               	movlw	1
  6223  0D39  025C               	subwf	___fldiv@new_exp,w
  6224  0D3A                     u3415:	
  6225  0D3A  1803               	skipnc
  6226  0D3B  2D3D               	goto	u3411
  6227  0D3C  2D3E               	goto	u3410
  6228  0D3D                     u3411:	
  6229  0D3D  2D4B               	goto	l649
  6230  0D3E                     u3410:	
  6231  0D3E                     l2602:	
  6232  0D3E  1283               	bcf	3,5	;RP0=0, select bank0
  6233  0D3F  1303               	bcf	3,6	;RP1=0, select bank0
  6234  0D40  01DC               	clrf	___fldiv@new_exp
  6235  0D41  01DD               	clrf	___fldiv@new_exp+1
  6236  0D42                     l2604:	
  6237  0D42  3000               	movlw	0
  6238  0D43  00D1               	movwf	___fldiv@b+3
  6239  0D44  3000               	movlw	0
  6240  0D45  00D0               	movwf	___fldiv@b+2
  6241  0D46  3000               	movlw	0
  6242  0D47  00CF               	movwf	___fldiv@b+1
  6243  0D48  3000               	movlw	0
  6244  0D49  00CE               	movwf	___fldiv@b
  6245  0D4A                     l2606:	
  6246  0D4A  01DB               	clrf	___fldiv@sign
  6247  0D4B                     l649:	
  6248  0D4B  1283               	bcf	3,5	;RP0=0, select bank0
  6249  0D4C  1303               	bcf	3,6	;RP1=0, select bank0
  6250  0D4D  085C               	movf	___fldiv@new_exp,w
  6251  0D4E  00D2               	movwf	??___fldiv
  6252  0D4F  0852               	movf	??___fldiv,w
  6253  0D50  00E2               	movwf	___fldiv@bexp
  6254  0D51                     l2608:	
  6255  0D51  1C62               	btfss	___fldiv@bexp,0
  6256  0D52  2D54               	goto	u3421
  6257  0D53  2D55               	goto	u3420
  6258  0D54                     u3421:	
  6259  0D54  2D57               	goto	l2612
  6260  0D55                     u3420:	
  6261  0D55                     l2610:	
  6262  0D55  17D0               	bsf	___fldiv@b+2,7
  6263  0D56  2D5B               	goto	l651
  6264  0D57                     l2612:	
  6265  0D57  307F               	movlw	127
  6266  0D58  00D2               	movwf	??___fldiv
  6267  0D59  0852               	movf	??___fldiv,w
  6268  0D5A  05D0               	andwf	___fldiv@b+2,f
  6269  0D5B                     l651:	
  6270  0D5B  0862               	movf	___fldiv@bexp,w
  6271  0D5C  00D2               	movwf	??___fldiv
  6272  0D5D  1003               	clrc
  6273  0D5E  0C52               	rrf	??___fldiv,w
  6274  0D5F  00D3               	movwf	??___fldiv+1
  6275  0D60  0853               	movf	??___fldiv+1,w
  6276  0D61  00D1               	movwf	___fldiv@b+3
  6277  0D62  085B               	movf	___fldiv@sign,w
  6278  0D63  00D2               	movwf	??___fldiv
  6279  0D64  0852               	movf	??___fldiv,w
  6280  0D65  04D1               	iorwf	___fldiv@b+3,f
  6281  0D66  2BFF               	goto	l2520
  6282  0D67                     l629:	
  6283  0D67  0008               	return
  6284  0D68                     __end_of___fldiv:	
  6285                           
  6286                           	psect	text20
  6287  17C0                     __ptext20:	
  6288 ;; *************** function _I2C_Master_Write *****************
  6289 ;; Defined at:
  6290 ;;		line 146 in file "Labor5_Master.c"
  6291 ;; Parameters:    Size  Location     Type
  6292 ;;  d               2    0[COMMON] unsigned int 
  6293 ;; Auto vars:     Size  Location     Type
  6294 ;;		None
  6295 ;; Return value:  Size  Location     Type
  6296 ;;                  1    wreg      void 
  6297 ;; Registers used:
  6298 ;;		wreg, status,2, status,0, pclath, cstack
  6299 ;; Tracked objects:
  6300 ;;		On entry : 0/0
  6301 ;;		On exit  : 0/0
  6302 ;;		Unchanged: 0/0
  6303 ;; Data sizes:     COMMON   BANK0   BANK1   BANK3   BANK2
  6304 ;;      Params:         2       0       0       0       0
  6305 ;;      Locals:         0       0       0       0       0
  6306 ;;      Temps:          0       0       0       0       0
  6307 ;;      Totals:         2       0       0       0       0
  6308 ;;Total ram usage:        2 bytes
  6309 ;; Hardware stack levels used:    1
  6310 ;; Hardware stack levels required when called:    1
  6311 ;; This function calls:
  6312 ;;		_I2C_Master_Wait
  6313 ;; This function is called by:
  6314 ;;		_main
  6315 ;; This function uses a non-reentrant model
  6316 ;;
  6317                           
  6318                           
  6319                           ;psect for function _I2C_Master_Write
  6320  17C0                     _I2C_Master_Write:	
  6321  17C0                     l2428:	
  6322                           ;incstack = 0
  6323                           ; Regs used in _I2C_Master_Write: [wreg+status,2+status,0+pclath+cstack]
  6324                           
  6325                           
  6326                           ;Labor5_Master.c: 146: void I2C_Master_Write(unsigned d);Labor5_Master.c: 147: {;Labor5_
      +                          Master.c: 148:     I2C_Master_Wait();
  6327  17C0  120A  158A  2027  160A  118A  	fcall	_I2C_Master_Wait
  6328  17C5                     l2430:	
  6329                           
  6330                           ;Labor5_Master.c: 149:     SSPBUF = d;
  6331  17C5  0870               	movf	I2C_Master_Write@d,w
  6332  17C6  1283               	bcf	3,5	;RP0=0, select bank0
  6333  17C7  1303               	bcf	3,6	;RP1=0, select bank0
  6334  17C8  0093               	movwf	19	;volatile
  6335  17C9                     l189:	
  6336  17C9  0008               	return
  6337  17CA                     __end_of_I2C_Master_Write:	
  6338                           
  6339                           	psect	text21
  6340  17B7                     __ptext21:	
  6341 ;; *************** function _I2C_Master_Stop *****************
  6342 ;; Defined at:
  6343 ;;		line 136 in file "Labor5_Master.c"
  6344 ;; Parameters:    Size  Location     Type
  6345 ;;		None
  6346 ;; Auto vars:     Size  Location     Type
  6347 ;;		None
  6348 ;; Return value:  Size  Location     Type
  6349 ;;                  1    wreg      void 
  6350 ;; Registers used:
  6351 ;;		wreg, status,2, status,0, pclath, cstack
  6352 ;; Tracked objects:
  6353 ;;		On entry : 0/0
  6354 ;;		On exit  : 0/0
  6355 ;;		Unchanged: 0/0
  6356 ;; Data sizes:     COMMON   BANK0   BANK1   BANK3   BANK2
  6357 ;;      Params:         0       0       0       0       0
  6358 ;;      Locals:         0       0       0       0       0
  6359 ;;      Temps:          0       0       0       0       0
  6360 ;;      Totals:         0       0       0       0       0
  6361 ;;Total ram usage:        0 bytes
  6362 ;; Hardware stack levels used:    1
  6363 ;; Hardware stack levels required when called:    1
  6364 ;; This function calls:
  6365 ;;		_I2C_Master_Wait
  6366 ;; This function is called by:
  6367 ;;		_main
  6368 ;; This function uses a non-reentrant model
  6369 ;;
  6370                           
  6371                           
  6372                           ;psect for function _I2C_Master_Stop
  6373  17B7                     _I2C_Master_Stop:	
  6374  17B7                     l2432:	
  6375                           ;incstack = 0
  6376                           ; Regs used in _I2C_Master_Stop: [wreg+status,2+status,0+pclath+cstack]
  6377                           
  6378                           
  6379                           ;Labor5_Master.c: 138:     I2C_Master_Wait();
  6380  17B7  120A  158A  2027  160A  118A  	fcall	_I2C_Master_Wait
  6381  17BC                     l2434:	
  6382                           
  6383                           ;Labor5_Master.c: 139:     SSPCON2bits.PEN = 1;
  6384  17BC  1683               	bsf	3,5	;RP0=1, select bank1
  6385  17BD  1303               	bcf	3,6	;RP1=0, select bank1
  6386  17BE  1511               	bsf	17,2	;volatile
  6387  17BF                     l186:	
  6388  17BF  0008               	return
  6389  17C0                     __end_of_I2C_Master_Stop:	
  6390                           
  6391                           	psect	text22
  6392  17AE                     __ptext22:	
  6393 ;; *************** function _I2C_Master_Start *****************
  6394 ;; Defined at:
  6395 ;;		line 120 in file "Labor5_Master.c"
  6396 ;; Parameters:    Size  Location     Type
  6397 ;;		None
  6398 ;; Auto vars:     Size  Location     Type
  6399 ;;		None
  6400 ;; Return value:  Size  Location     Type
  6401 ;;                  1    wreg      void 
  6402 ;; Registers used:
  6403 ;;		wreg, status,2, status,0, pclath, cstack
  6404 ;; Tracked objects:
  6405 ;;		On entry : 0/0
  6406 ;;		On exit  : 0/0
  6407 ;;		Unchanged: 0/0
  6408 ;; Data sizes:     COMMON   BANK0   BANK1   BANK3   BANK2
  6409 ;;      Params:         0       0       0       0       0
  6410 ;;      Locals:         0       0       0       0       0
  6411 ;;      Temps:          0       0       0       0       0
  6412 ;;      Totals:         0       0       0       0       0
  6413 ;;Total ram usage:        0 bytes
  6414 ;; Hardware stack levels used:    1
  6415 ;; Hardware stack levels required when called:    1
  6416 ;; This function calls:
  6417 ;;		_I2C_Master_Wait
  6418 ;; This function is called by:
  6419 ;;		_main
  6420 ;; This function uses a non-reentrant model
  6421 ;;
  6422                           
  6423                           
  6424                           ;psect for function _I2C_Master_Start
  6425  17AE                     _I2C_Master_Start:	
  6426  17AE                     l2424:	
  6427                           ;incstack = 0
  6428                           ; Regs used in _I2C_Master_Start: [wreg+status,2+status,0+pclath+cstack]
  6429                           
  6430                           
  6431                           ;Labor5_Master.c: 122:     I2C_Master_Wait();
  6432  17AE  120A  158A  2027  160A  118A  	fcall	_I2C_Master_Wait
  6433  17B3                     l2426:	
  6434                           
  6435                           ;Labor5_Master.c: 123:     SSPCON2bits.SEN = 1;
  6436  17B3  1683               	bsf	3,5	;RP0=1, select bank1
  6437  17B4  1303               	bcf	3,6	;RP1=0, select bank1
  6438  17B5  1411               	bsf	17,0	;volatile
  6439  17B6                     l180:	
  6440  17B6  0008               	return
  6441  17B7                     __end_of_I2C_Master_Start:	
  6442                           
  6443                           	psect	text23
  6444  091B                     __ptext23:	
  6445 ;; *************** function _I2C_Master_Read *****************
  6446 ;; Defined at:
  6447 ;;		line 155 in file "Labor5_Master.c"
  6448 ;; Parameters:    Size  Location     Type
  6449 ;;  a               2    0[COMMON] unsigned short 
  6450 ;; Auto vars:     Size  Location     Type
  6451 ;;  temp            2    4[COMMON] unsigned short 
  6452 ;; Return value:  Size  Location     Type
  6453 ;;                  2    0[COMMON] unsigned short 
  6454 ;; Registers used:
  6455 ;;		wreg, status,2, status,0, pclath, cstack
  6456 ;; Tracked objects:
  6457 ;;		On entry : 0/0
  6458 ;;		On exit  : 0/0
  6459 ;;		Unchanged: 0/0
  6460 ;; Data sizes:     COMMON   BANK0   BANK1   BANK3   BANK2
  6461 ;;      Params:         2       0       0       0       0
  6462 ;;      Locals:         2       0       0       0       0
  6463 ;;      Temps:          2       0       0       0       0
  6464 ;;      Totals:         6       0       0       0       0
  6465 ;;Total ram usage:        6 bytes
  6466 ;; Hardware stack levels used:    1
  6467 ;; Hardware stack levels required when called:    1
  6468 ;; This function calls:
  6469 ;;		_I2C_Master_Wait
  6470 ;; This function is called by:
  6471 ;;		_main
  6472 ;; This function uses a non-reentrant model
  6473 ;;
  6474                           
  6475                           
  6476                           ;psect for function _I2C_Master_Read
  6477  091B                     _I2C_Master_Read:	
  6478  091B                     l2436:	
  6479                           ;incstack = 0
  6480                           ; Regs used in _I2C_Master_Read: [wreg+status,2+status,0+pclath+cstack]
  6481                           
  6482                           
  6483                           ;Labor5_Master.c: 155: unsigned short I2C_Master_Read(unsigned short a);Labor5_Master.c:
      +                           156: {;Labor5_Master.c: 157:     unsigned short temp;;Labor5_Master.c: 158:     I2C_Mas
      +                          ter_Wait();
  6484  091B  120A  158A  2027  120A  158A  	fcall	_I2C_Master_Wait
  6485  0920                     l2438:	
  6486                           
  6487                           ;Labor5_Master.c: 159:     SSPCON2bits.RCEN = 1;
  6488  0920  1683               	bsf	3,5	;RP0=1, select bank1
  6489  0921  1303               	bcf	3,6	;RP1=0, select bank1
  6490  0922  1591               	bsf	17,3	;volatile
  6491                           
  6492                           ;Labor5_Master.c: 160:     I2C_Master_Wait();
  6493  0923  120A  158A  2027  120A  158A  	fcall	_I2C_Master_Wait
  6494  0928                     l2440:	
  6495                           
  6496                           ;Labor5_Master.c: 161:     temp = SSPBUF;
  6497  0928  1283               	bcf	3,5	;RP0=0, select bank0
  6498  0929  1303               	bcf	3,6	;RP1=0, select bank0
  6499  092A  0813               	movf	19,w	;volatile
  6500  092B  00F2               	movwf	??_I2C_Master_Read
  6501  092C  01F3               	clrf	??_I2C_Master_Read+1
  6502  092D  0872               	movf	??_I2C_Master_Read,w
  6503  092E  00F4               	movwf	I2C_Master_Read@temp
  6504  092F  0873               	movf	??_I2C_Master_Read+1,w
  6505  0930  00F5               	movwf	I2C_Master_Read@temp+1
  6506  0931                     l2442:	
  6507                           
  6508                           ;Labor5_Master.c: 162:     I2C_Master_Wait();
  6509  0931  120A  158A  2027  120A  158A  	fcall	_I2C_Master_Wait
  6510  0936                     l2444:	
  6511                           
  6512                           ;Labor5_Master.c: 163:     ACKDT = (a)?0:1;
  6513  0936  0870               	movf	I2C_Master_Read@a,w
  6514  0937  0471               	iorwf	I2C_Master_Read@a+1,w
  6515  0938  1903               	btfsc	3,2
  6516  0939  293B               	goto	u3111
  6517  093A  293F               	goto	u3110
  6518  093B                     u3111:	
  6519  093B  1683               	bsf	3,5	;RP0=1, select bank1
  6520  093C  1303               	bcf	3,6	;RP1=0, select bank1
  6521  093D  1691               	bsf	17,5	;volatile
  6522  093E  2942               	goto	u3124
  6523  093F                     u3110:	
  6524  093F  1683               	bsf	3,5	;RP0=1, select bank1
  6525  0940  1303               	bcf	3,6	;RP1=0, select bank1
  6526  0941  1291               	bcf	17,5	;volatile
  6527  0942                     u3124:	
  6528  0942                     l2446:	
  6529                           
  6530                           ;Labor5_Master.c: 164:     ACKEN = 1;
  6531  0942  1611               	bsf	17,4	;volatile
  6532  0943                     l2448:	
  6533                           
  6534                           ;Labor5_Master.c: 165:     return temp;
  6535  0943  0875               	movf	I2C_Master_Read@temp+1,w
  6536  0944  00F1               	movwf	?_I2C_Master_Read+1
  6537  0945  0874               	movf	I2C_Master_Read@temp,w
  6538  0946  00F0               	movwf	?_I2C_Master_Read
  6539  0947                     l192:	
  6540  0947  0008               	return
  6541  0948                     __end_of_I2C_Master_Read:	
  6542                           
  6543                           	psect	text24
  6544  0827                     __ptext24:	
  6545 ;; *************** function _I2C_Master_Wait *****************
  6546 ;; Defined at:
  6547 ;;		line 113 in file "Labor5_Master.c"
  6548 ;; Parameters:    Size  Location     Type
  6549 ;;		None
  6550 ;; Auto vars:     Size  Location     Type
  6551 ;;		None
  6552 ;; Return value:  Size  Location     Type
  6553 ;;                  1    wreg      void 
  6554 ;; Registers used:
  6555 ;;		wreg, status,2
  6556 ;; Tracked objects:
  6557 ;;		On entry : 0/0
  6558 ;;		On exit  : 0/0
  6559 ;;		Unchanged: 0/0
  6560 ;; Data sizes:     COMMON   BANK0   BANK1   BANK3   BANK2
  6561 ;;      Params:         0       0       0       0       0
  6562 ;;      Locals:         0       0       0       0       0
  6563 ;;      Temps:          0       0       0       0       0
  6564 ;;      Totals:         0       0       0       0       0
  6565 ;;Total ram usage:        0 bytes
  6566 ;; Hardware stack levels used:    1
  6567 ;; This function calls:
  6568 ;;		Nothing
  6569 ;; This function is called by:
  6570 ;;		_I2C_Master_Start
  6571 ;;		_I2C_Master_Stop
  6572 ;;		_I2C_Master_Write
  6573 ;;		_I2C_Master_Read
  6574 ;;		_I2C_Master_RepeatedStart
  6575 ;; This function uses a non-reentrant model
  6576 ;;
  6577                           
  6578                           
  6579                           ;psect for function _I2C_Master_Wait
  6580  0827                     _I2C_Master_Wait:	
  6581  0827                     l2088:	
  6582                           ;incstack = 0
  6583                           ; Regs used in _I2C_Master_Wait: [wreg+status,2]
  6584                           
  6585  0827                     l174:	
  6586                           ;Labor5_Master.c: 115:     while ((SSPSTAT & 0x04) || (SSPCON2 & 0x1F));
  6587                           
  6588  0827  1683               	bsf	3,5	;RP0=1, select bank1
  6589  0828  1303               	bcf	3,6	;RP1=0, select bank1
  6590  0829  1914               	btfsc	20,2	;volatile
  6591  082A  282C               	goto	u2361
  6592  082B  282D               	goto	u2360
  6593  082C                     u2361:	
  6594  082C  2827               	goto	l174
  6595  082D                     u2360:	
  6596  082D                     l2090:	
  6597  082D  0811               	movf	17,w	;volatile
  6598  082E  391F               	andlw	31
  6599  082F  1D03               	btfss	3,2
  6600  0830  2832               	goto	u2371
  6601  0831  2833               	goto	u2370
  6602  0832                     u2371:	
  6603  0832  2827               	goto	l174
  6604  0833                     u2370:	
  6605  0833                     l177:	
  6606  0833  0008               	return
  6607  0834                     __end_of_I2C_Master_Wait:	
  6608                           
  6609                           	psect	text25
  6610  0004                     __ptext25:	
  6611 ;; *************** function _I2C_Master_Init *****************
  6612 ;; Defined at:
  6613 ;;		line 96 in file "Labor5_Master.c"
  6614 ;; Parameters:    Size  Location     Type
  6615 ;;  c               4    0[BANK0 ] const unsigned long 
  6616 ;; Auto vars:     Size  Location     Type
  6617 ;;		None
  6618 ;; Return value:  Size  Location     Type
  6619 ;;                  1    wreg      void 
  6620 ;; Registers used:
  6621 ;;		wreg, status,2, status,0, pclath, cstack
  6622 ;; Tracked objects:
  6623 ;;		On entry : 0/0
  6624 ;;		On exit  : 0/0
  6625 ;;		Unchanged: 0/0
  6626 ;; Data sizes:     COMMON   BANK0   BANK1   BANK3   BANK2
  6627 ;;      Params:         0       4       0       0       0
  6628 ;;      Locals:         0       0       0       0       0
  6629 ;;      Temps:          0       4       0       0       0
  6630 ;;      Totals:         0       8       0       0       0
  6631 ;;Total ram usage:        8 bytes
  6632 ;; Hardware stack levels used:    1
  6633 ;; Hardware stack levels required when called:    1
  6634 ;; This function calls:
  6635 ;;		___lldiv
  6636 ;; This function is called by:
  6637 ;;		_main
  6638 ;; This function uses a non-reentrant model
  6639 ;;
  6640                           
  6641                           
  6642                           ;psect for function _I2C_Master_Init
  6643  0004                     _I2C_Master_Init:	
  6644  0004                     l2410:	
  6645                           ;incstack = 0
  6646                           ; Regs used in _I2C_Master_Init: [wreg+status,2+status,0+pclath+cstack]
  6647                           
  6648                           
  6649                           ;Labor5_Master.c: 96: void I2C_Master_Init(const unsigned long c);Labor5_Master.c: 97: {
      +                          ;Labor5_Master.c: 98:     SSPCON = 0b00101000;
  6650  0004  3028               	movlw	40
  6651  0005  1283               	bcf	3,5	;RP0=0, select bank0
  6652  0006  1303               	bcf	3,6	;RP1=0, select bank0
  6653  0007  0094               	movwf	20	;volatile
  6654  0008                     l2412:	
  6655                           
  6656                           ;Labor5_Master.c: 99:     SSPCON2 = 0;
  6657  0008  1683               	bsf	3,5	;RP0=1, select bank1
  6658  0009  1303               	bcf	3,6	;RP1=0, select bank1
  6659  000A  0191               	clrf	17	;volatile
  6660  000B                     l2414:	
  6661                           
  6662                           ;Labor5_Master.c: 100:     SSPADD = (4000000/(4*c))-1;
  6663  000B  1283               	bcf	3,5	;RP0=0, select bank0
  6664  000C  1303               	bcf	3,6	;RP1=0, select bank0
  6665  000D  0820               	movf	I2C_Master_Init@c,w
  6666  000E  00A4               	movwf	??_I2C_Master_Init
  6667  000F  0821               	movf	I2C_Master_Init@c+1,w
  6668  0010  00A5               	movwf	??_I2C_Master_Init+1
  6669  0011  0822               	movf	I2C_Master_Init@c+2,w
  6670  0012  00A6               	movwf	??_I2C_Master_Init+2
  6671  0013  0823               	movf	I2C_Master_Init@c+3,w
  6672  0014  00A7               	movwf	??_I2C_Master_Init+3
  6673  0015  3002               	movlw	2
  6674  0016                     u3105:	
  6675  0016  1003               	clrc
  6676  0017  0DA4               	rlf	??_I2C_Master_Init,f
  6677  0018  0DA5               	rlf	??_I2C_Master_Init+1,f
  6678  0019  0DA6               	rlf	??_I2C_Master_Init+2,f
  6679  001A  0DA7               	rlf	??_I2C_Master_Init+3,f
  6680  001B                     u3100:	
  6681  001B  3EFF               	addlw	-1
  6682  001C  1D03               	skipz
  6683  001D  2816               	goto	u3105
  6684  001E  0827               	movf	??_I2C_Master_Init+3,w
  6685  001F  00F3               	movwf	___lldiv@divisor+3
  6686  0020  0826               	movf	??_I2C_Master_Init+2,w
  6687  0021  00F2               	movwf	___lldiv@divisor+2
  6688  0022  0825               	movf	??_I2C_Master_Init+1,w
  6689  0023  00F1               	movwf	___lldiv@divisor+1
  6690  0024  0824               	movf	??_I2C_Master_Init,w
  6691  0025  00F0               	movwf	___lldiv@divisor
  6692  0026  3000               	movlw	0
  6693  0027  00F7               	movwf	___lldiv@dividend+3
  6694  0028  303D               	movlw	61
  6695  0029  00F6               	movwf	___lldiv@dividend+2
  6696  002A  3009               	movlw	9
  6697  002B  00F5               	movwf	___lldiv@dividend+1
  6698  002C  3000               	movlw	0
  6699  002D  00F4               	movwf	___lldiv@dividend
  6700  002E  120A  158A  21F9  120A  118A  	fcall	___lldiv
  6701  0033  0870               	movf	?___lldiv,w
  6702  0034  3EFF               	addlw	255
  6703  0035  1683               	bsf	3,5	;RP0=1, select bank1
  6704  0036  1303               	bcf	3,6	;RP1=0, select bank1
  6705  0037  0093               	movwf	19	;volatile
  6706  0038                     l2416:	
  6707                           
  6708                           ;Labor5_Master.c: 101:     SSPSTAT = 0;
  6709  0038  0194               	clrf	20	;volatile
  6710  0039                     l2418:	
  6711                           
  6712                           ;Labor5_Master.c: 102:     TRISCbits.TRISC3 = 1;
  6713  0039  1587               	bsf	7,3	;volatile
  6714  003A                     l2420:	
  6715                           
  6716                           ;Labor5_Master.c: 103:     TRISCbits.TRISC4 = 1;
  6717  003A  1607               	bsf	7,4	;volatile
  6718  003B                     l171:	
  6719  003B  0008               	return
  6720  003C                     __end_of_I2C_Master_Init:	
  6721                           
  6722                           	psect	text26
  6723  09F9                     __ptext26:	
  6724 ;; *************** function ___lldiv *****************
  6725 ;; Defined at:
  6726 ;;		line 5 in file "C:\Program Files (x86)\Microchip\xc8\v2.10\pic\sources\c90\common\__lldiv.c"
  6727 ;; Parameters:    Size  Location     Type
  6728 ;;  divisor         4    0[COMMON] unsigned long 
  6729 ;;  dividend        4    4[COMMON] unsigned long 
  6730 ;; Auto vars:     Size  Location     Type
  6731 ;;  quotient        4    9[COMMON] unsigned long 
  6732 ;;  counter         1   13[COMMON] unsigned char 
  6733 ;; Return value:  Size  Location     Type
  6734 ;;                  4    0[COMMON] unsigned long 
  6735 ;; Registers used:
  6736 ;;		wreg, status,2, status,0
  6737 ;; Tracked objects:
  6738 ;;		On entry : 0/0
  6739 ;;		On exit  : 0/0
  6740 ;;		Unchanged: 0/0
  6741 ;; Data sizes:     COMMON   BANK0   BANK1   BANK3   BANK2
  6742 ;;      Params:         8       0       0       0       0
  6743 ;;      Locals:         5       0       0       0       0
  6744 ;;      Temps:          1       0       0       0       0
  6745 ;;      Totals:        14       0       0       0       0
  6746 ;;Total ram usage:       14 bytes
  6747 ;; Hardware stack levels used:    1
  6748 ;; This function calls:
  6749 ;;		Nothing
  6750 ;; This function is called by:
  6751 ;;		_I2C_Master_Init
  6752 ;; This function uses a non-reentrant model
  6753 ;;
  6754                           
  6755                           
  6756                           ;psect for function ___lldiv
  6757  09F9                     ___lldiv:	
  6758  09F9                     l2092:	
  6759                           ;incstack = 0
  6760                           ; Regs used in ___lldiv: [wreg+status,2+status,0]
  6761                           
  6762  09F9  3000               	movlw	0
  6763  09FA  00FC               	movwf	___lldiv@quotient+3
  6764  09FB  3000               	movlw	0
  6765  09FC  00FB               	movwf	___lldiv@quotient+2
  6766  09FD  3000               	movlw	0
  6767  09FE  00FA               	movwf	___lldiv@quotient+1
  6768  09FF  3000               	movlw	0
  6769  0A00  00F9               	movwf	___lldiv@quotient
  6770  0A01  0873               	movf	___lldiv@divisor+3,w
  6771  0A02  0472               	iorwf	___lldiv@divisor+2,w
  6772  0A03  0471               	iorwf	___lldiv@divisor+1,w
  6773  0A04  0470               	iorwf	___lldiv@divisor,w
  6774  0A05  1903               	skipnz
  6775  0A06  2A08               	goto	u2381
  6776  0A07  2A09               	goto	u2380
  6777  0A08                     u2381:	
  6778  0A08  2A56               	goto	l2112
  6779  0A09                     u2380:	
  6780  0A09                     l2094:	
  6781  0A09  01FD               	clrf	___lldiv@counter
  6782  0A0A  0AFD               	incf	___lldiv@counter,f
  6783  0A0B  2A19               	goto	l2098
  6784  0A0C                     l2096:	
  6785  0A0C  3001               	movlw	1
  6786  0A0D  00F8               	movwf	??___lldiv
  6787  0A0E                     u2395:	
  6788  0A0E  1003               	clrc
  6789  0A0F  0DF0               	rlf	___lldiv@divisor,f
  6790  0A10  0DF1               	rlf	___lldiv@divisor+1,f
  6791  0A11  0DF2               	rlf	___lldiv@divisor+2,f
  6792  0A12  0DF3               	rlf	___lldiv@divisor+3,f
  6793  0A13  0BF8               	decfsz	??___lldiv,f
  6794  0A14  2A0E               	goto	u2395
  6795  0A15  3001               	movlw	1
  6796  0A16  00F8               	movwf	??___lldiv
  6797  0A17  0878               	movf	??___lldiv,w
  6798  0A18  07FD               	addwf	___lldiv@counter,f
  6799  0A19                     l2098:	
  6800  0A19  1FF3               	btfss	___lldiv@divisor+3,7
  6801  0A1A  2A1C               	goto	u2401
  6802  0A1B  2A1D               	goto	u2400
  6803  0A1C                     u2401:	
  6804  0A1C  2A0C               	goto	l2096
  6805  0A1D                     u2400:	
  6806  0A1D                     l2100:	
  6807  0A1D  3001               	movlw	1
  6808  0A1E  00F8               	movwf	??___lldiv
  6809  0A1F                     u2415:	
  6810  0A1F  1003               	clrc
  6811  0A20  0DF9               	rlf	___lldiv@quotient,f
  6812  0A21  0DFA               	rlf	___lldiv@quotient+1,f
  6813  0A22  0DFB               	rlf	___lldiv@quotient+2,f
  6814  0A23  0DFC               	rlf	___lldiv@quotient+3,f
  6815  0A24  0BF8               	decfsz	??___lldiv,f
  6816  0A25  2A1F               	goto	u2415
  6817  0A26                     l2102:	
  6818  0A26  0873               	movf	___lldiv@divisor+3,w
  6819  0A27  0277               	subwf	___lldiv@dividend+3,w
  6820  0A28  1D03               	skipz
  6821  0A29  2A34               	goto	u2425
  6822  0A2A  0872               	movf	___lldiv@divisor+2,w
  6823  0A2B  0276               	subwf	___lldiv@dividend+2,w
  6824  0A2C  1D03               	skipz
  6825  0A2D  2A34               	goto	u2425
  6826  0A2E  0871               	movf	___lldiv@divisor+1,w
  6827  0A2F  0275               	subwf	___lldiv@dividend+1,w
  6828  0A30  1D03               	skipz
  6829  0A31  2A34               	goto	u2425
  6830  0A32  0870               	movf	___lldiv@divisor,w
  6831  0A33  0274               	subwf	___lldiv@dividend,w
  6832  0A34                     u2425:	
  6833  0A34  1C03               	skipc
  6834  0A35  2A37               	goto	u2421
  6835  0A36  2A38               	goto	u2420
  6836  0A37                     u2421:	
  6837  0A37  2A47               	goto	l2108
  6838  0A38                     u2420:	
  6839  0A38                     l2104:	
  6840  0A38  0870               	movf	___lldiv@divisor,w
  6841  0A39  02F4               	subwf	___lldiv@dividend,f
  6842  0A3A  0871               	movf	___lldiv@divisor+1,w
  6843  0A3B  1C03               	skipc
  6844  0A3C  0F71               	incfsz	___lldiv@divisor+1,w
  6845  0A3D  02F5               	subwf	___lldiv@dividend+1,f
  6846  0A3E  0872               	movf	___lldiv@divisor+2,w
  6847  0A3F  1C03               	skipc
  6848  0A40  0F72               	incfsz	___lldiv@divisor+2,w
  6849  0A41  02F6               	subwf	___lldiv@dividend+2,f
  6850  0A42  0873               	movf	___lldiv@divisor+3,w
  6851  0A43  1C03               	skipc
  6852  0A44  0F73               	incfsz	___lldiv@divisor+3,w
  6853  0A45  02F7               	subwf	___lldiv@dividend+3,f
  6854  0A46                     l2106:	
  6855  0A46  1479               	bsf	___lldiv@quotient,0
  6856  0A47                     l2108:	
  6857  0A47  3001               	movlw	1
  6858  0A48                     u2435:	
  6859  0A48  1003               	clrc
  6860  0A49  0CF3               	rrf	___lldiv@divisor+3,f
  6861  0A4A  0CF2               	rrf	___lldiv@divisor+2,f
  6862  0A4B  0CF1               	rrf	___lldiv@divisor+1,f
  6863  0A4C  0CF0               	rrf	___lldiv@divisor,f
  6864  0A4D  3EFF               	addlw	-1
  6865  0A4E  1D03               	skipz
  6866  0A4F  2A48               	goto	u2435
  6867  0A50                     l2110:	
  6868  0A50  3001               	movlw	1
  6869  0A51  02FD               	subwf	___lldiv@counter,f
  6870  0A52  1D03               	btfss	3,2
  6871  0A53  2A55               	goto	u2441
  6872  0A54  2A56               	goto	u2440
  6873  0A55                     u2441:	
  6874  0A55  2A1D               	goto	l2100
  6875  0A56                     u2440:	
  6876  0A56                     l2112:	
  6877  0A56  087C               	movf	___lldiv@quotient+3,w
  6878  0A57  00F3               	movwf	?___lldiv+3
  6879  0A58  087B               	movf	___lldiv@quotient+2,w
  6880  0A59  00F2               	movwf	?___lldiv+2
  6881  0A5A  087A               	movf	___lldiv@quotient+1,w
  6882  0A5B  00F1               	movwf	?___lldiv+1
  6883  0A5C  0879               	movf	___lldiv@quotient,w
  6884  0A5D  00F0               	movwf	?___lldiv
  6885  0A5E                     l314:	
  6886  0A5E  0008               	return
  6887  0A5F                     __end_of___lldiv:	
  6888  007E                     btemp	set	126	;btemp
  6889  007E                     wtemp0	set	126


Data Sizes:
    Strings     22
    Constant    0
    Data        0
    BSS         67
    Persistent  0
    Stack       0

Auto Spaces:
    Space          Size  Autos    Used
    COMMON           14     14      14
    BANK0            80     72      79
    BANK1            80      0      60
    BANK3            96      0       0
    BANK2            96      0       0

Pointer List with Targets:

    utoa@buf	PTR unsigned char  size(1) Largest target is 16
		 -> distancia1(BANK1[16]), contador1(BANK1[8]), valana3(BANK1[8]), valana2(BANK1[8]), 
		 -> valana1(BANK1[8]), 

    sp__utoa	PTR unsigned char  size(1) Largest target is 16
		 -> distancia1(BANK1[16]), contador1(BANK1[8]), valana3(BANK1[8]), valana2(BANK1[8]), 
		 -> valana1(BANK1[8]), 

    itoa@buf	PTR unsigned char  size(1) Largest target is 16
		 -> distancia1(BANK1[16]), contador1(BANK1[8]), valana3(BANK1[8]), valana2(BANK1[8]), 
		 -> valana1(BANK1[8]), 

    itoa@cp	PTR unsigned char  size(1) Largest target is 16
		 -> distancia1(BANK1[16]), contador1(BANK1[8]), valana3(BANK1[8]), valana2(BANK1[8]), 
		 -> valana1(BANK1[8]), 

    lcd_msg@c	PTR unsigned char  size(2) Largest target is 17
		 -> STR_3(CODE[3]), distancia1(BANK1[16]), contador1(BANK1[8]), STR_2(CODE[2]), 
		 -> valana3(BANK1[8]), valana2(BANK1[8]), valana1(BANK1[8]), STR_1(CODE[17]), 

    sp__itoa	PTR unsigned char  size(1) Largest target is 16
		 -> distancia1(BANK1[16]), contador1(BANK1[8]), valana3(BANK1[8]), valana2(BANK1[8]), 
		 -> valana1(BANK1[8]), 


Critical Paths under _main in COMMON

    _main->___xxtofl
    _main->_itoa
    _lcd_msg->_lcd_dwr
    _lcd_dwr->_enable
    _lcd_dwr->_lcd_ready
    _lcd_ini->_lcd_com
    _lcd_com->_enable
    _itoa->_utoa
    _utoa->___lwdiv
    _float2int->___xxtofl
    ___fltol->___xxtofl
    ___flsub->___xxtofl
    ___flmul->___xxtofl
    ___fldiv->___xxtofl
    _I2C_Master_Init->___lldiv

Critical Paths under _main in BANK0

    _main->___fldiv
    _itoa->_utoa
    _float2int->___fltol
    ___fltol->___flmul
    ___flsub->___fladd
    ___flmul->___flsub
    ___fldiv->___flmul

Critical Paths under _main in BANK1

    None.

Critical Paths under _main in BANK3

    None.

Critical Paths under _main in BANK2

    None.

Call Graph Tables:

 ---------------------------------------------------------------------------------
 (Depth) Function   	        Calls       Base Space   Used Autos Params    Refs
 ---------------------------------------------------------------------------------
 (0) _main                                                 4     4      0   15992
                                             68 BANK0      4     4      0
                    _I2C_Master_Init
                    _I2C_Master_Read
                   _I2C_Master_Start
                    _I2C_Master_Stop
                   _I2C_Master_Write
                            ___fldiv
                            ___flmul
                           ___xxtofl
                          _float2int
                               _itoa
                            _lcd_com
                            _lcd_ini
                            _lcd_msg
                              _setup
 ---------------------------------------------------------------------------------
 (1) _setup                                                0     0      0       0
 ---------------------------------------------------------------------------------
 (1) _lcd_msg                                              2     0      2     675
                                              3 COMMON     2     0      2
                            _lcd_dwr
 ---------------------------------------------------------------------------------
 (2) _lcd_dwr                                              1     1      0      22
                                              2 COMMON     1     1      0
                             _enable
                          _lcd_ready
 ---------------------------------------------------------------------------------
 (3) _lcd_ready                                            2     2      0       0
                                              0 COMMON     2     2      0
 ---------------------------------------------------------------------------------
 (1) _lcd_ini                                              2     2      0      22
                                              5 COMMON     2     2      0
                            _lcd_com
 ---------------------------------------------------------------------------------
 (2) _lcd_com                                              3     3      0      22
                                              2 COMMON     3     3      0
                             _enable
 ---------------------------------------------------------------------------------
 (3) _enable                                               2     2      0       0
                                              0 COMMON     2     2      0
 ---------------------------------------------------------------------------------
 (1) _itoa                                                 7     3      4    2352
                                             13 COMMON     1     1      0
                                              4 BANK0      6     2      4
                               _utoa
 ---------------------------------------------------------------------------------
 (2) _utoa                                                 9     5      4    1264
                                              8 COMMON     5     1      4
                                              0 BANK0      4     4      0
                            ___lwdiv
                            ___lwmod
 ---------------------------------------------------------------------------------
 (3) ___lwmod                                              6     2      4     311
                                              0 COMMON     6     2      4
 ---------------------------------------------------------------------------------
 (3) ___lwdiv                                              8     4      4     466
                                              0 COMMON     8     4      4
 ---------------------------------------------------------------------------------
 (1) _float2int                                            8     4      4    6758
                                             53 BANK0      8     4      4
                            ___flmul
                            ___flsub
                            ___fltol
                           ___xxtofl
 ---------------------------------------------------------------------------------
 (2) ___xxtofl                                            14    10      4     626
                                              0 COMMON    14    10      4
 ---------------------------------------------------------------------------------
 (2) ___fltol                                             11     7      4     457
                                             42 BANK0     11     7      4
                            ___flmul (ARG)
                            ___flsub (ARG)
                           ___xxtofl (ARG)
 ---------------------------------------------------------------------------------
 (2) ___flsub                                              8     0      8    2637
                                              8 BANK0      8     0      8
                          __Umul8_16 (ARG)
                            ___fladd
                           ___xxtofl (ARG)
 ---------------------------------------------------------------------------------
 (3) ___fladd                                             20    12      8    2136
                                              0 COMMON    12     4      8
                                              0 BANK0      8     8      0
 ---------------------------------------------------------------------------------
 (2) ___flmul                                             26    18      8    2873
                                             16 BANK0     26    18      8
                          __Umul8_16
                            ___flsub (ARG)
                           ___xxtofl (ARG)
 ---------------------------------------------------------------------------------
 (3) __Umul8_16                                            9     7      2     799
                                              0 COMMON     9     7      2
 ---------------------------------------------------------------------------------
 (1) ___fldiv                                             26    18      8    1273
                                             42 BANK0     26    18      8
                            ___flmul (ARG)
                           ___xxtofl (ARG)
 ---------------------------------------------------------------------------------
 (1) _I2C_Master_Write                                     2     0      2     706
                                              0 COMMON     2     0      2
                    _I2C_Master_Wait
 ---------------------------------------------------------------------------------
 (1) _I2C_Master_Stop                                      0     0      0       0
                    _I2C_Master_Wait
 ---------------------------------------------------------------------------------
 (1) _I2C_Master_Start                                     0     0      0       0
                    _I2C_Master_Wait
 ---------------------------------------------------------------------------------
 (1) _I2C_Master_Read                                      6     4      2     273
                                              0 COMMON     6     4      2
                    _I2C_Master_Wait
 ---------------------------------------------------------------------------------
 (2) _I2C_Master_Wait                                      0     0      0       0
 ---------------------------------------------------------------------------------
 (1) _I2C_Master_Init                                      8     4      4     412
                                              0 BANK0      8     4      4
                            ___lldiv
 ---------------------------------------------------------------------------------
 (2) ___lldiv                                             14     6      8     314
                                              0 COMMON    14     6      8
 ---------------------------------------------------------------------------------
 Estimated maximum stack depth 3
 ---------------------------------------------------------------------------------

 Call Graph Graphs:

 _main (ROOT)
   _I2C_Master_Init
     ___lldiv
   _I2C_Master_Read
     _I2C_Master_Wait
   _I2C_Master_Start
     _I2C_Master_Wait
   _I2C_Master_Stop
     _I2C_Master_Wait
   _I2C_Master_Write
     _I2C_Master_Wait
   ___fldiv
     ___flmul (ARG)
       __Umul8_16
       ___flsub (ARG)
         __Umul8_16 (ARG)
         ___fladd (ARG)
         ___xxtofl (ARG)
       ___xxtofl (ARG)
     ___xxtofl (ARG)
   ___flmul
     __Umul8_16
     ___flsub (ARG)
       __Umul8_16 (ARG)
       ___fladd (ARG)
       ___xxtofl (ARG)
     ___xxtofl (ARG)
   ___xxtofl
   _float2int
     ___flmul
       __Umul8_16
       ___flsub (ARG)
         __Umul8_16 (ARG)
         ___fladd (ARG)
         ___xxtofl (ARG)
       ___xxtofl (ARG)
     ___flsub
       __Umul8_16 (ARG)
       ___fladd (ARG)
       ___xxtofl (ARG)
     ___fltol
       ___flmul (ARG)
         __Umul8_16
         ___flsub (ARG)
           __Umul8_16 (ARG)
           ___fladd (ARG)
           ___xxtofl (ARG)
         ___xxtofl (ARG)
       ___flsub (ARG)
         __Umul8_16 (ARG)
         ___fladd (ARG)
         ___xxtofl (ARG)
       ___xxtofl (ARG)
     ___xxtofl
   _itoa
     _utoa
       ___lwdiv
       ___lwmod
   _lcd_com
     _enable
   _lcd_ini
     _lcd_com
       _enable
   _lcd_msg
     _lcd_dwr
       _enable
       _lcd_ready
   _setup

 Address spaces:
Name               Size   Autos  Total    Cost      Usage
BITCOMMON            E      0       0       0        0.0%
EEDATA             100      0       0       0        0.0%
NULL                 0      0       0       0        0.0%
CODE                 0      0       0       0        0.0%
COMMON               E      E       E       1      100.0%
BITSFR0              0      0       0       1        0.0%
SFR0                 0      0       0       1        0.0%
BITSFR1              0      0       0       2        0.0%
SFR1                 0      0       0       2        0.0%
STACK                0      0       0       2        0.0%
ABS                  0      0      99       3        0.0%
BITBANK0            50      0       0       4        0.0%
BITSFR3              0      0       0       4        0.0%
SFR3                 0      0       0       4        0.0%
BANK0               50     48      4F       5       98.8%
BITSFR2              0      0       0       5        0.0%
SFR2                 0      0       0       5        0.0%
BITBANK1            50      0       0       6        0.0%
BANK1               50      0      3C       7       75.0%
BITBANK3            60      0       0       8        0.0%
BANK3               60      0       0       9        0.0%
BITBANK2            60      0       0      10        0.0%
BANK2               60      0       0      11        0.0%
DATA                 0      0      99      12        0.0%


Microchip Technology PIC Macro Assembler V2.10 build 88905656 
Symbol Table                                                                                   Fri Feb 28 14:14:21 2020

             ___fldiv@aexp 0063               ___fldiv@bexp 0062                          pc 0002  
             ___fldiv@sign 005B                lcd_com@dato 0074                __CFG_CP$OFF 0000  
                       fsr 0004        __Umul8_16@word_mpld 0076                        l141 08F1  
                      l144 17D9                        l153 091A                        l314 0A5E  
                      l162 08A3                        l171 003B                        l180 17B6  
                      l148 097A                        l156 17EB                        l165 01BE  
                      l174 0827                        l192 0947                        l168 17FF  
                      l177 0833                        l186 17BF                        l602 0F8D  
                      l189 17C9                        l613 0FF1                        l605 0FCD  
                      l614 0FFF                        l550 09F8                        l471 00A2  
                      l711 0B38                        l464 00B7                        l560 09B4  
                      l617 0857                        l705 0AF3                        l474 00B7  
                      l651 0D5B                        l643 0CD9                        l627 0BE7  
                      l571 0DCB                        l707 0B8A                        l740 08CA  
                      l732 0AB9                        l629 0D67                        l718 0B54  
                      l734 0AD0                        l726 087D                        l575 0E74  
                      l719 0B60                        l592 0F45                        l584 0FFF  
                      l649 0D4B                        l673 0755                        l577 0E49  
                      l738 08B8                        l667 07E9                        l596 0F6B  
                      l679 07DD               __CFG_CPD$OFF 0000                        fsr0 0004  
                      indf 0000               ___flmul@aexp 0042               ___flmul@bexp 0043  
             ___flmul@sign 003D               ___flmul@temp 0048               ___flmul@prod 0044  
             __CFG_LVP$OFF 0000               ___fltol@exp1 0054                       l2000 0F7B  
                     l2002 0F7F                       l2100 0A1D                       l2020 0FC9  
                     l2012 0F92                       l2004 0F80                       l2110 0A50  
                     l2102 0A26                       l2030 0FE5                       l2022 0FD2  
                     l2014 0F97                       l2006 0F84                       l2104 0A38  
                     l2112 0A56                       l2040 08A5                       l2032 0FE9  
                     l2024 0FD7                       l2016 0FA5                       l2008 0F8A  
                     l2106 0A46                       l2050 08C6                       l2042 08A7  
                     l2210 054C                       l2202 04F6                       l2034 0FEB  
                     l2026 0FDF                       l2018 0FA9                       l2130 0072  
                     l2122 0052                       l2108 0A47                       l2044 08AE  
                     l2220 05C9                       l2212 0578                       l2204 0506  
                     l2036 0FFA                       l2028 0FE4                       l2132 0076  
                     l2140 0090                       l2124 0067                       l2116 003C  
                     l2300 0AD7                       l2060 0954                       l2046 08B2  
                     l2230 0649                       l2222 05E6                       l2214 0594  
                     l2206 0513                       l2038 0FFE                       l2150 00AC  
                     l2126 0068                       l2118 0049                       l2310 0B04  
                     l2302 0ADB                       l2070 096B                       l2062 0955  
                     l2054 0949                       l2048 08C1                       l2240 0701  
                     l2232 0676                       l2224 05F6                       l2216 05B0  
                     l2208 0530                       l2160 0490                       l2152 0834  
                     l2128 0070                       l2320 0B2F                       l2312 0B09  
                     l2304 0AEB                       l2072 096C                       l2064 095A  
                     l2056 094F                       l2400 08EB                       l2080 17E0  
                     l2410 0004                       l2090 082D                       l2250 0726  
                     l2242 070A                       l2234 0686                       l2226 0613  
                     l2218 05B9                       l2170 04A5                       l2162 0496  
                     l2154 0838                       l2146 0097                       l2138 007E  
                     l2330 0B62                       l2322 0B3F                       l2314 0B16  
                     l2306 0AFB                       l2074 096D                       l2066 0962  
                     l2058 0953                       l2082 17E4                       l2402 087E  
                     l2092 09F9                       l2420 003A                       l2412 0008  
                     l2500 0BC5                       l2260 073E                       l2252 072F  
                     l2244 0718                       l2236 06B3                       l2228 062C  
                     l2180 04C2                       l2172 04AD                       l2164 049A  
                     l2148 00A7                       l2332 0B78                       l2324 0B4A  
                     l2316 0B1D                       l2068 0967                       l2084 17E5  
                     l2404 087F                       l2094 0A09                       l2414 000B  
                     l2430 17C5                       l2510 0BDC                       l2502 0BC9  
                     l2270 076D                       l2262 0752                       l2246 0721  
                     l2254 0735                       l2238 06D9                       l2190 04D9  
                     l2182 04C6                       l2174 04AF                       l2166 049B  
                     l2158 0489                       l2334 0B7D                       l2326 0B4E  
                     l2318 0B21                       l2350 0A83                       l2342 0A62  
                     l2086 17E6                       l2078 17DB                       l2406 088D  
                     l2096 0A0C                       l2416 0038                       l2088 0827  
                     l2440 0928                       l2424 17AE                       l2432 17B7  
                     l2600 0D2F                       l2520 0BFF                       l2512 0BDD  
                     l2504 0BCA                       l2280 07A8                       l2272 0771  
                     l2256 0739                       l2248 0725                       l2192 04DB  
                     l2184 04C7                       l2176 04B7                       l2168 04A0  
                     l2336 0B81                       l2328 0B58                       l1800 09B7  
                     l2360 0AB5                       l2352 0A87                       l2344 0A66  
                     l2408 0893                       l2098 0A19                       l2418 0039  
                     l2442 0931                       l2426 17B3                       l2434 17BC  
                     l2610 0D55                       l2602 0D3E                       l2530 0C16  
                     l2506 0BCF                       l2514 0BDF                       l2290 07D5  
                     l2282 07B7                       l2274 078A                       l2266 075A  
                     l2258 073A                       l2194 04E3                       l2186 04CC  
                     l2178 04BC                       l2338 0B82                       l1810 09CF  
                     l1802 09BD                       l2362 0ABD                       l2354 0A89  
                     l2346 0A79                       l2444 0936                       l2436 091B  
                     l2428 17C0                       l2612 0D57                       l2604 0D42  
                     l2540 0C42                       l2532 0C28                       l2516 0BEF  
                     l2524 0C08                       l2508 0BD4                       l2292 07D6  
                     l2284 07C1                       l2268 075F                       l2276 0790  
                     l2196 04E8                       l2188 04D1                       l1900 0DE5  
                     l2452 00B8                       l1812 09E0                       l1804 09C0  
                     l1820 09F4                       l2364 0AC4                       l2356 0A9C  
                     l2348 0A7D                       l2380 17F8                       l2372 17EC  
                     l2700 039C                       l2620 01CF                       l2446 0942  
                     l2438 0920                       l2606 0D4A                       l2542 0C47  
                     l2550 0C67                       l2534 0C30                       l2526 0C0D  
                     l2518 0BFB                       l2294 07E1                       l2286 07C3  
                     l2278 079D                       l2198 04ED                       l1910 0DF9  
                     l1902 0DE9                       l2454 00CD                       l1814 09E6  
                     l1806 09C7                       l1830 098B                       l2366 0AC6  
                     l2358 0AAD                       l2470 086A                       l2462 085B  
                     l2390 08CB                       l2382 17FB                       l2374 17F4  
                     l2710 03C6                       l2702 03AA                       l2630 0200  
                     l2622 01D8                       l2448 0943                       l2608 0D51  
                     l2560 0C92                       l2552 0C79                       l2544 0C59  
                     l2536 0C38                       l2480 0B98                       l2288 07D1  
                     l1920 0E0D                       l1912 0DFD                       l1904 0DED  
                     l2456 011F                       l1816 09E7                       l1808 09CB  
                     l1840 09AA                       l1832 098F                       l1824 097B  
                     l2368 0ACC                       l2472 086F                       l2464 085B  
                     l2392 08D3                       l2384 17FC                       l2376 17F6  
                     l2720 041B                       l2712 03CC                       l2704 03AF  
                     l2640 022B                       l2632 020E                       l2624 01E3  
                     l2570 0CAA                       l2562 0C9A                       l2554 0C7A  
                     l2546 0C5D                       l2538 0C40                       l2490 0BAF  
                     l2482 0B9C                       l1930 0E4D                       l1922 0E11  
                     l1914 0E01                       l1906 0DF1                       l1850 0D75  
                     l2298 0AD2                       l2458 0166                       l1818 09EE  
                     l1834 0993                       l1826 0981                       l1842 09B0  
                     l2466 085F                       l2394 08D9                       l2386 17FD  
                     l2378 17F7                       l2730 044B                       l2722 0420  
                     l2714 03DF                       l2706 03BE                       l2650 0250  
                     l2642 0239                       l2634 0213                       l2626 01F2  
                     l2618 01BF                       l2580 0CC2                       l2572 0CB3  
                     l2564 0C9C                       l2556 0C88                       l2548 0C5E  
                     l2492 0BB0                       l2484 0B9D                       l2476 0B8B  
                     l1940 0E6A                       l1932 0E58                       l1916 0E05  
                     l1908 0DF5                       l1924 0E15                       l1860 0D8C  
                     l1852 0D79                       l1836 099D                       l1828 0984  
                     l2468 0866                       l1772 17CA                       l2396 08DF  
                     l1780 08F6                       l2388 17FE                       l2740 047C  
                     l2732 0451                       l2724 0429                       l2716 0409  
                     l2708 03C4                       l2660 02E2                       l2652 02A9  
                     l2644 023E                       l2636 021D                       l2628 01F7  
                     l2590 0CF1                       l2582 0CD6                       l2566 0CA5  
                     l2574 0CB9                       l2558 0C8C                       l2486 0BA2  
                     l2494 0BB2                       l2478 0B92                       l1950 0E86  
                     l1934 0E5A                       l1942 0E6E                       l1926 0E16  
                     l1918 0E09                       l1870 0DA2                       l1862 0D8D  
                     l1854 0D7A                       l1846 0D68                       l1838 09A3  
                     l1774 17CD                       l2398 08E5                       l1790 0905  
                     l1782 08FA                       l2734 0457                       l2726 0437  
                     l2718 0418                       l2670 0327                       l2662 02F2  
                     l2654 02B4                       l2646 0248                       l2638 0222  
                     l2592 0CF5                       l2576 0CBD                       l2568 0CA9  
                     l2496 0BBA                       l2488 0BA7                       l1960 0EB2  
                     l1952 0E9D                       l1944 0E78                       l1936 0E5E  
                     l1928 0E2D                       l1880 0DB3                       l1872 0DA3  
                     l1856 0D7F                       l1864 0D8F                       l1848 0D6F  
                     l1776 17D6                       l1792 090E                       l1784 08FB  
                     l2736 046D                       l2728 043C                       l2680 034E  
                     l2672 0330                       l2664 0302                       l2656 02D1  
                     l2648 024E                       l2594 0D0E                       l2586 0CDE  
                     l2578 0CBE                       l2498 0BBF                       l1970 0EDD  
                     l1962 0EB6                       l1954 0EA1                       l1946 0E7D  
                     l1938 0E5F                       l1890 0DD1                       l1882 0DB8  
                     l1874 0DA9                       l1866 0D97                       l1858 0D84  
                     l1794 090F                       l1786 08FC                       l1778 08F2  
                     l2738 0476                       l2690 0377                       l2682 0358  
                     l2674 0336                       l2666 0318                       l2658 02DC  
                     l2588 0CE3                       l2596 0D14                       l1980 0F4D  
                     l1972 0F1D                       l1964 0EB7                       l1956 0EA5  
                     l1892 0DD5                       l1884 0DC0                       l1876 0DAD  
                     l1868 0D9C                       l1796 0917                       l1788 08FD  
                     l2692 037C                       l2684 035B                       l2676 033F  
                     l2668 0321                       l2598 0D21                       l1990 0F6A  
                     l1982 0F52                       l1974 0F23                       l1966 0EC2  
                     l1958 0EB0                       l1894 0DD9                       l1886 0DC1  
                     l1878 0DAE                       l1798 09B5                       l2694 038B  
                     l2686 0360                       l2678 0345                       l1992 0F6F  
                     l1976 0F28                       l1968 0EC7                       l1896 0DDD  
                     l1888 0DC3                       l2696 038E                       l2688 0369  
                     l1994 0F72                       l1986 0F5B                       l1978 0F37  
                     l1898 0DE1                       l2698 0393                       l1996 0F74  
                     l1988 0F66                       l1998 0F79                       STR_1 0810  
                     STR_2 0824                       STR_3 0821                       u2010 0E74  
                     u2011 0E73                       u2020 0E78                       u2101 0EF6  
                     u2021 0E77                       u2005 0E63                       u2110 0F0A  
                     u2102 0EF7                       u2030 0E7D                       u2111 0F0B  
                     u2103 0EFC                       u2031 0E7C                       u2200 0F84  
                     u2120 0F28                       u2112 0F10                       u2104 0EFD  
                     u3000 0B4E                       u2201 0F83                       u2121 0F27  
                     u2113 0F11                       u2105 0F02                       u2041 0E8F  
                     u3001 0B4D                       u2210 0F8A                       u2130 0F4D  
                     u2106 0F03                       u2050 0EA1                       u2042 0E96  
                     u3010 0B54                       u2211 0F89                       u2131 0F4C  
                     u2051 0EA0                       u2043 0E9D                       u3011 0B53  
                     u3100 001B                       u2300 0FE9                       u2220 0F91  
                     u2140 0F52                       u2060 0EA5                       u3020 0B58  
                     u2301 0FE8                       u2221 0F90                       u2141 0F51  
                     u2061 0EA4                       u3021 0B57                       u3110 093F  
                     u2310 0FFE                       u2230 0F97                       u2070 0EB6  
                     u3030 0B6D                       u3111 093B                       u2311 0FFD  
                     u2231 0F96                       u2071 0EB5                       u2400 0A1D  
                     u3200 0BEF                       u2320 08B2                       u2240 0FA9  
                     u2160 0F6A                       u3040 0B7D                       u2401 0A1C  
                     u3105 0016                       u3201 0BEE                       u2321 08B1  
                     u2241 0FA8                       u2161 0F69                       u3041 0B7C  
                     u3210 0C0D                       u2250 0FBA                       u2170 0F6F  
                     u2090 0EDD                       u3050 0B81                       u3130 085F  
                     u3211 0C0C                       u2171 0F6E                       u2155 0F5F  
                     u2091 0EDC                       u3051 0B80                       u3035 0B68  
                     u3131 085E                       u2420 0A38                       u3124 0942  
                     u3220 0C47                       u3140 0B9C                       u2340 08C6  
                     u2260 0FC9                       u2180 0F79                       u2500 008F  
                     u3060 0A83                       u2421 0A37                       u3221 0C46  
                     u3141 0B9B                       u2341 08C5                       u2261 0FC8  
                     u2181 0F78                       u2093 0ED9                       u2085 0EBB  
                     u2501 008E                       u3061 0A82                       u3310 0CA9  
                     u3150 0BA2                       u2270 0FD2                       u2190 0F7F  
                     u2510 0096                       u3070 0AB5                       u2350 0962  
                     u2415 0A1F                       u3311 0CA8                       u3151 0BA1  
                     u2335 08B9                       u2271 0FD1                       u2255 0FB5  
                     u2191 0F7E                       u2511 0095                       u3071 0AB4  
                     u2351 0961                       u2440 0A56                       u2360 082D  
                     u3400 0D21                       u3160 0BA7                       u2600 04D1  
                     u2280 0FD7                       u1800 0981                       u3080 0ACC  
                     u1720 090E                       u2441 0A55                       u2425 0A34  
                     u2361 082C                       u3401 0D20                       u3305 0C9E  
                     u3161 0BA6                       u2601 04D0                       u2281 0FD6  
                     u1801 0980                       u3081 0ACB                       u1721 090D  
                     u2370 0833                       u3410 0D3E                       u3330 0CBD  
                     u3250 0C5D                       u3170 0BC9                       u2610 04E8  
                     u2290 0FE4                       u2530 00A7                       u2450 0049  
                     u1730 09BD                       u3090 08A3                       u2435 0A48  
                     u2371 0832                       u3411 0D3D                       u3331 0CBC  
                     u3251 0C5C                       u3235 0C49                       u3171 0BC8  
                     u2611 04E7                       u2291 0FE3                       u2531 00A6  
                     u2451 0048                       u1731 09BC                       u3091 08A2  
                     u2380 0A09                       u3420 0D55                       u3340 0CC2  
                     u3180 0BCF                       u2620 04ED                       u1900 0DAD  
                     u2540 00AC                       u2460 0060                       u1820 0993  
                     u2381 0A08                       u3421 0D54                       u3405 0D1D  
                     u3341 0CC1                       u3325 0CAC                       u3245 0C52  
                     u3181 0BCE                       u2621 04EC                       u1901 0DAC  
                     u2541 00AB                       u2525 0099                       u1821 0992  
                     u3350 0CD6                       u3270 0C79                       u3190 0BD4  
                     u2550 049A                       u1910 0DB3                       u2470 0076  
                     u1750 09CF                       u1830 099D                       u3415 0D3A  
                     u3351 0CD5                       u3271 0C78                       u3191 0BD3  
                     u2711 063B                       u2631 053E                       u2551 0499  
                     u1911 0DB2                       u2471 0075                       u1751 09CE  
                     u1831 099C                       u1815 0985                       u3360 0CDD  
                     u3280 0C92                       u2800 0725                       u2712 0642  
                     u2632 0545                       u2560 04A0                       u1920 0DB8  
                     u2480 007D                       u3361 0CDC                       u3281 0C91  
                     u3265 0C60                       u2801 0724                       u2721 0668  
                     u2713 0649                       u2705 0615                       u2641 055A  
                     u2633 054C                       u2561 049F                       u1921 0DB7  
                     u2481 007C                       u2465 005B                       u1745 09C1  
                     u3370 0CE3                       u3290 0C9A                       u2722 066F  
                     u2642 0561                       u2570 04A5                       u1930 0DD1  
                     u1770 09E0                       u1850 09B0                       u2395 0A0E  
                     u3371 0CE2                       u3291 0C99                       u3275 0C75  
                     u2731 0695                       u2723 0676                       u2651 0586  
                     u2643 0568                       u2571 04A4                       u1931 0DD0  
                     u1771 09DF                       u1851 09AF                       u1835 0999  
                     u3507 0411                       u3380 0CF5                       u2900 07B7  
                     u2820 0739                       u2740 06BF                       u2732 069C  
                     u2652 058D                       u2580 04C6                       u1940 0DD5  
                     u1860 0D79                       u3381 0CF4                       u2901 07B6  
                     u2821 0738                       u2733 06A3                       u2661 05A2  
                     u2653 0594                       u2581 04C5                       u1941 0DD4  
                     u1861 0D78                       u1765 09D0                       u1845 09A4  
                     u3517 0444                       u3437 01DE                       u3390 0D04  
                     u2910 07D5                       u2830 073E                       u2662 05A9  
                     u2590 04CC                       u1950 0E2D                       u1870 0D7F  
                     u1790 09F4                       u2911 07D4                       u2831 073D  
                     u2815 0728                       u2751 06CB                       u2663 05B0  
                     u2591 04CB                       u1951 0E2C                       u1871 0D7E  
                     u2495 007F                       u1791 09F3                       u1775 09DC  
                     u3527 0901                       u3447 0219                       u2840 0752  
                     u2760 06E7                       u2752 06D2                       u1960 0E36  
                     u1880 0D84                       u2920 0AD7                       u2905 07B3  
                     u2841 0751                       u2753 06D9                       u2745 06BA  
                     u2681 05D8                       u1961 0E34                       u1881 0D83  
                     u2921 0AD6                       u1785 09E8                       u3537 0913  
                     u3457 0244                       u2850 0759                       u2682 05DF  
                     u1970 0E37                       u1890 0DA2                       u2930 0ADB  
                     u3395 0CFF                       u2851 0758                       u2771 06F3  
                     u2691 0605                       u2683 05E6                       u2675 05B2  
                     u1955 0E29                       u1891 0DA1                       u2931 0ADA  
                     u3547 08CF                       u3467 02AF                       u2860 075F  
                     u2772 06FA                       u2692 060C                       u1980 0E4D  
                     u2940 0AFB                       u2861 075E                       u2773 0701  
                     u2765 06E2                       u2693 0613                       u1981 0E4C  
                     u2941 0AFA                       u3557 0976                       u3477 02D7  
                     u2870 0771                       u1990 0E5E                       u2871 0770  
                     u1991 0E5D                       u3567 17D1                       u3487 0384  
                     u2880 0780                       u2960 0B1C                       u2785 0703  
                     u2961 0B1B                       u3497 03B7                       u2890 079D  
                     u2891 079C                       u2795 071A                       u2955 0B0E  
                     u2980 0B3E                       u2885 077B                       u2981 0B3D  
                     u2895 0799                       u2975 0B30                       u2995 0B43  
             __CFG_WRT$OFF 0000                       _main 01BF                       _itoa 0858  
                     btemp 007E                       _utoa 0A5F                       start 0000  
            __CFG_IESO$OFF 0000            ___fldiv@new_exp 005C           ?_I2C_Master_Init 0020  
         ?_I2C_Master_Read 0070           ?_I2C_Master_Wait 0070           ?_I2C_Master_Stop 0070  
            ___fltol@sign1 0053            __end_of___fladd 1000                      ?_main 0070  
                    _ACKEN 048C                      _ACKDT 048D            __end_of___fldiv 0D68  
                    ?_itoa 0024              __CFG_WDTE$OFF 0000            __end_of___flmul 07EA  
          __end_of___flsub 0858            __end_of___fltol 00B8                      _ANSEL 0188  
          __end_of___lldiv 0A5F                      ?_utoa 0078            __end_of___lwdiv 09F9  
          __end_of___lwmod 09B5                      _PORTA 0005                      _PORTB 0006  
                    _PORTC 0007                      _PORTD 0008                      _PORTE 0009  
                    _TRISA 0085                      _TRISB 0086                      _TRISC 0087  
                    _TRISD 0088                      _TRISE 0089             __CFG_FCMEN$OFF 0000  
          __end_of_lcd_com 097B            __end_of_lcd_ini 08F2            __end_of_lcd_dwr 17EC  
          __end_of_lcd_msg 08A4                      _valor 00A0                      _setup 17EC  
           __CFG_BOREN$OFF 0000                      pclath 000A                      utoa@c 0022  
                    utoa@v 0020                      status 0003                      wtemp0 007E  
           __CFG_MCLRE$OFF 0000            __initialization 07EA               __end_of_main 0489  
             __end_of_itoa 087E               __end_of_utoa 0AD1                     ??_main 0064  
                   ??_itoa 007D                     ??_utoa 007C          ?_I2C_Master_Start 0070  
        ?_I2C_Master_Write 0070         ??_I2C_Master_Start 0070         ??_I2C_Master_Write 0072  
                   ?_setup 0070                     _ANSELH 0189                     _SSPADD 0093  
                   _SSPCON 0014                     _SSPBUF 0013           __end_of___xxtofl 0B8B  
           __CFG_PWRTE$OFF 0000                  ??___fladd 0020                  ??___fldiv 0052  
                ??___flmul 0038                  ??___flsub 007E                  ??___fltol 004E  
                ??___lldiv 0078                     _enable 17CA                  ??___lwdiv 0074  
                ??___lwmod 0074                     _valana 006E                  ??_lcd_com 0072  
                ??_lcd_ini 0075                  ??_lcd_dwr 0072                  ??_lcd_msg 0075  
       __size_of__Umul8_16 0027               ___xxtofl@arg 007A               ___xxtofl@exp 0079  
             ___xxtofl@val 0070    __end_of__initialization 07FC                 ___fltol@f1 004A  
           __pcstackCOMMON 0070              __end_of_setup 1800         __size_of_lcd_ready 0029  
       __size_of_float2int 0107                    ??_setup 0070                 __pbssBANK0 0068  
               __pbssBANK1 00A0             float2int@valor 0055          __end_of__Umul8_16 08CB  
               __pmaintext 01BF                    ?_enable 0070                  ?___xxtofl 0070  
               _distancia1 00AC                    _SSPCON2 0091                    _SSPSTAT 0094  
               __stringtab 0800          __end_of_lcd_ready 091B          __end_of_float2int 01BF  
                  ___fladd 0D68                    ___fldiv 0B8B                    ___flmul 0489  
                  ___flsub 0834                    ___fltol 003C                    ___lldiv 09F9  
                  ___lwdiv 09B5                    ___lwmod 097B            __size_of_enable 0010  
                  _desecho 006D                    __ptext1 17EC                    __ptext2 087E  
                  __ptext3 17DA                    __ptext4 08F2                    __ptext5 08CB  
                  __ptext6 0948                    __ptext7 17CA                    __ptext8 0858  
                  __ptext9 0A5F                    _lcd_com 0948                    _lcd_ini 08CB  
                  _lcd_dwr 17DA                    _lcd_msg 087E                 ??___xxtofl 0074  
                  _valana1 00D4                    _valana2 00CC                    _valana3 00C4  
 __size_of_I2C_Master_Init 0038   __size_of_I2C_Master_Read 002D   __size_of_I2C_Master_Wait 000D  
 __size_of_I2C_Master_Stop 0009                    clrloop0 17A7                    _voltaje 00A4  
     end_of_initialization 07FC                    itoa@buf 0029                    itoa@val 0024  
__size_of_I2C_Master_Start 0009  __size_of_I2C_Master_Write 000A                 _valanapot1 006A  
               _valanapot2 0068                 _valanapot3 00A8            ___lldiv@divisor 0070  
          ___lldiv@counter 007D           I2C_Master_Init@c 0020           I2C_Master_Read@a 0070  
                  utoa@buf 0023                    utoa@val 0078                  _PORTCbits 0007  
              ___fladd@grs 007B              ___xxtofl@sign 0078                  _TRISCbits 0087  
              ___fldiv@grs 005E                ___fldiv@rem 0057                ___flmul@grs 003E  
           __end_of_enable 17DA        start_initialization 07EA          ??_I2C_Master_Init 0024  
        ??_I2C_Master_Read 0072          ??_I2C_Master_Wait 0070          ??_I2C_Master_Stop 0070  
 __CFG_FOSC$INTRC_NOCLKOUT 0000                   ??_enable 0070                  __Umul8_16 08A4  
                ___fladd@a 0074                  ___fladd@b 0070                  ___fldiv@a 004A  
                ___fldiv@b 004E                  ___flmul@a 0034                  ___flmul@b 0030  
                ___flsub@a 0028                  ___flsub@b 002C                  ___latbits 0002  
            __pcstackBANK0 0020          __size_of___xxtofl 00BA           _I2C_Master_Start 17AE  
         _I2C_Master_Write 17C0           ___lwdiv@dividend 0072                   ?___fladd 0070  
                 ?___fldiv 004A                   ?___flmul 0030                   ?___flsub 0028  
                 ?___fltol 004A                   ?___lldiv 0070                 ?__Umul8_16 0070  
                 ?___lwdiv 0070                   ?___lwmod 0070                  _lcd_ready 08F2  
                __pstrings 0800                  _float2int 00B8                  _distancia 00AA  
                 ?_lcd_com 0070                   ?_lcd_ini 0070                   ?_lcd_dwr 0070  
                 ?_lcd_msg 0073                  _contador1 00BC           ___lwdiv@quotient 0075  
           __size_of_setup 0014                  clear_ram0 17A6                 ?_lcd_ready 0070  
               ?_float2int 0055                __stringbase 080F        I2C_Master_Read@temp 0074  
              ??__Umul8_16 0072           __size_of___fladd 0298           __size_of___fldiv 01DD  
         __size_of___flmul 0361           __size_of___flsub 0024           __size_of___fltol 007C  
         __size_of___lldiv 0066           __size_of___lwdiv 0044           __size_of___lwmod 003A  
       __end_of__stringtab 0810           __size_of_lcd_com 0033           __size_of_lcd_ini 0027  
         __size_of_lcd_dwr 0012           __size_of_lcd_msg 0026            _I2C_Master_Init 0004  
          _I2C_Master_Read 091B                   ___xxtofl 0AD1            _I2C_Master_Wait 0827  
          _I2C_Master_Stop 17B7            ___lwdiv@divisor 0070            ___lwdiv@counter 0077  
                 __ptext10 097B                   __ptext11 09B5                   __ptext20 17C0  
                 __ptext12 00B8                   __ptext21 17B7                   __ptext13 0AD1  
                 __ptext22 17AE                   __ptext14 003C                   __ptext23 091B  
                 __ptext15 0834                   __ptext24 0827                   __ptext16 0D68  
                 __ptext25 0004                   __ptext17 0489                   __ptext26 09F9  
                 __ptext18 08A4                   __ptext19 0B8B          __CFG_BOR4V$BOR40V 0000  
                 _contador 006C              __size_of_main 02CA              __size_of_itoa 0026  
            __size_of_utoa 0072                   lcd_dwr@x 0072                   lcd_msg@c 0073  
              ??_lcd_ready 0070                ??_float2int 007E   __end_of_I2C_Master_Start 17B7  
 __end_of_I2C_Master_Write 17CA                   itoa@base 0026           ___lwmod@dividend 0072  
         ___lldiv@dividend 0074                  stringcode 080A              _float2int$883 0059  
  __end_of_I2C_Master_Init 003C    __end_of_I2C_Master_Read 0948    __end_of_I2C_Master_Wait 0834  
  __end_of_I2C_Master_Stop 17C0                   utoa@base 007A     __Umul8_16@multiplicand 0070  
         ___lldiv@quotient 0079          I2C_Master_Write@d 0070            ___lwmod@divisor 0070  
          ___lwmod@counter 0075                   stringdir 080A                   stringtab 0800  
              _SSPCON2bits 0091              ___fladd@signs 0078               ___fladd@aexp 0079  
             ___fladd@bexp 007A       __Umul8_16@multiplier 0078          __Umul8_16@product 0074  
